ARM GAS  C:\Users\11800025\AppData\Local\Temp\ccw4Umoi.s 			page 1


   1              		.syntax unified
   2              		.cpu cortex-m0
   3              		.fpu softvfp
   4              		.eabi_attribute 20, 1
   5              		.eabi_attribute 21, 1
   6              		.eabi_attribute 23, 3
   7              		.eabi_attribute 24, 1
   8              		.eabi_attribute 25, 1
   9              		.eabi_attribute 26, 1
  10              		.eabi_attribute 30, 1
  11              		.eabi_attribute 34, 0
  12              		.eabi_attribute 18, 4
  13              		.thumb
  14              		.syntax unified
  15              		.file	"cyfitter_cfg.c"
  16              		.text
  17              	.Ltext0:
  18              		.cfi_sections	.debug_frame
  19              		.section	.text.cfg_write_bytes32,"ax",%progbits
  20              		.align	2
  21              		.code	16
  22              		.thumb_func
  23              		.type	cfg_write_bytes32, %function
  24              	cfg_write_bytes32:
  25              	.LFB5:
  26              		.file 1 "Generated_Source\\PSoC4\\cyfitter_cfg.c"
   1:Generated_Source\PSoC4/cyfitter_cfg.c **** 
   2:Generated_Source\PSoC4/cyfitter_cfg.c **** /*******************************************************************************
   3:Generated_Source\PSoC4/cyfitter_cfg.c **** * File Name: cyfitter_cfg.c
   4:Generated_Source\PSoC4/cyfitter_cfg.c **** * 
   5:Generated_Source\PSoC4/cyfitter_cfg.c **** * PSoC Creator  4.2
   6:Generated_Source\PSoC4/cyfitter_cfg.c **** *
   7:Generated_Source\PSoC4/cyfitter_cfg.c **** * Description:
   8:Generated_Source\PSoC4/cyfitter_cfg.c **** * This file contains device initialization code.
   9:Generated_Source\PSoC4/cyfitter_cfg.c **** * Except for the user defined sections in CyClockStartupError(), this file should not be modified.
  10:Generated_Source\PSoC4/cyfitter_cfg.c **** * This file is automatically generated by PSoC Creator.
  11:Generated_Source\PSoC4/cyfitter_cfg.c **** *
  12:Generated_Source\PSoC4/cyfitter_cfg.c **** ********************************************************************************
  13:Generated_Source\PSoC4/cyfitter_cfg.c **** * Copyright (c) 2007-2018 Cypress Semiconductor.  All rights reserved.
  14:Generated_Source\PSoC4/cyfitter_cfg.c **** * You may use this file only in accordance with the license, terms, conditions, 
  15:Generated_Source\PSoC4/cyfitter_cfg.c **** * disclaimers, and limitations in the end user license agreement accompanying 
  16:Generated_Source\PSoC4/cyfitter_cfg.c **** * the software package with which this file was provided.
  17:Generated_Source\PSoC4/cyfitter_cfg.c **** ********************************************************************************/
  18:Generated_Source\PSoC4/cyfitter_cfg.c **** 
  19:Generated_Source\PSoC4/cyfitter_cfg.c **** #include <string.h>
  20:Generated_Source\PSoC4/cyfitter_cfg.c **** #include "cytypes.h"
  21:Generated_Source\PSoC4/cyfitter_cfg.c **** #include "cydevice_trm.h"
  22:Generated_Source\PSoC4/cyfitter_cfg.c **** #include "cyfitter.h"
  23:Generated_Source\PSoC4/cyfitter_cfg.c **** #include "CyLib.h"
  24:Generated_Source\PSoC4/cyfitter_cfg.c **** #include "CyLFClk.h"
  25:Generated_Source\PSoC4/cyfitter_cfg.c **** #include "cyfitter_cfg.h"
  26:Generated_Source\PSoC4/cyfitter_cfg.c **** #include "cyapicallbacks.h"
  27:Generated_Source\PSoC4/cyfitter_cfg.c **** 
  28:Generated_Source\PSoC4/cyfitter_cfg.c **** 
  29:Generated_Source\PSoC4/cyfitter_cfg.c **** #if defined(__GNUC__) || defined(__ARMCC_VERSION)
  30:Generated_Source\PSoC4/cyfitter_cfg.c ****     #define CYPACKED 
  31:Generated_Source\PSoC4/cyfitter_cfg.c ****     #define CYPACKED_ATTR __attribute__ ((packed))
ARM GAS  C:\Users\11800025\AppData\Local\Temp\ccw4Umoi.s 			page 2


  32:Generated_Source\PSoC4/cyfitter_cfg.c ****     #define CYALIGNED __attribute__ ((aligned))
  33:Generated_Source\PSoC4/cyfitter_cfg.c ****     #define CY_CFG_UNUSED __attribute__ ((unused))
  34:Generated_Source\PSoC4/cyfitter_cfg.c ****     #ifndef CY_CFG_SECTION
  35:Generated_Source\PSoC4/cyfitter_cfg.c ****         #define CY_CFG_SECTION __attribute__ ((section(".psocinit")))
  36:Generated_Source\PSoC4/cyfitter_cfg.c ****     #endif
  37:Generated_Source\PSoC4/cyfitter_cfg.c ****     
  38:Generated_Source\PSoC4/cyfitter_cfg.c ****     #if defined(__ARMCC_VERSION)
  39:Generated_Source\PSoC4/cyfitter_cfg.c ****         #define CY_CFG_MEMORY_BARRIER() __memory_changed()
  40:Generated_Source\PSoC4/cyfitter_cfg.c ****     #else
  41:Generated_Source\PSoC4/cyfitter_cfg.c ****         #define CY_CFG_MEMORY_BARRIER() __sync_synchronize()
  42:Generated_Source\PSoC4/cyfitter_cfg.c ****     #endif
  43:Generated_Source\PSoC4/cyfitter_cfg.c ****     
  44:Generated_Source\PSoC4/cyfitter_cfg.c **** #elif defined(__ICCARM__)
  45:Generated_Source\PSoC4/cyfitter_cfg.c ****     #include <intrinsics.h>
  46:Generated_Source\PSoC4/cyfitter_cfg.c **** 
  47:Generated_Source\PSoC4/cyfitter_cfg.c ****     #define CYPACKED __packed
  48:Generated_Source\PSoC4/cyfitter_cfg.c ****     #define CYPACKED_ATTR 
  49:Generated_Source\PSoC4/cyfitter_cfg.c ****     #define CYALIGNED _Pragma("data_alignment=4")
  50:Generated_Source\PSoC4/cyfitter_cfg.c ****     #define CY_CFG_UNUSED _Pragma("diag_suppress=Pe177")
  51:Generated_Source\PSoC4/cyfitter_cfg.c ****     #define CY_CFG_SECTION _Pragma("location=\".psocinit\"")
  52:Generated_Source\PSoC4/cyfitter_cfg.c ****     
  53:Generated_Source\PSoC4/cyfitter_cfg.c ****     #define CY_CFG_MEMORY_BARRIER() __DMB()
  54:Generated_Source\PSoC4/cyfitter_cfg.c ****     
  55:Generated_Source\PSoC4/cyfitter_cfg.c **** #else
  56:Generated_Source\PSoC4/cyfitter_cfg.c ****     #error Unsupported toolchain
  57:Generated_Source\PSoC4/cyfitter_cfg.c **** #endif
  58:Generated_Source\PSoC4/cyfitter_cfg.c **** 
  59:Generated_Source\PSoC4/cyfitter_cfg.c **** #ifndef CYCODE
  60:Generated_Source\PSoC4/cyfitter_cfg.c ****     #define CYCODE
  61:Generated_Source\PSoC4/cyfitter_cfg.c **** #endif
  62:Generated_Source\PSoC4/cyfitter_cfg.c **** #ifndef CYDATA
  63:Generated_Source\PSoC4/cyfitter_cfg.c ****     #define CYDATA
  64:Generated_Source\PSoC4/cyfitter_cfg.c **** #endif
  65:Generated_Source\PSoC4/cyfitter_cfg.c **** #ifndef CYFAR
  66:Generated_Source\PSoC4/cyfitter_cfg.c ****     #define CYFAR
  67:Generated_Source\PSoC4/cyfitter_cfg.c **** #endif
  68:Generated_Source\PSoC4/cyfitter_cfg.c **** #ifndef CYXDATA
  69:Generated_Source\PSoC4/cyfitter_cfg.c ****     #define CYXDATA
  70:Generated_Source\PSoC4/cyfitter_cfg.c **** #endif
  71:Generated_Source\PSoC4/cyfitter_cfg.c **** 
  72:Generated_Source\PSoC4/cyfitter_cfg.c **** 
  73:Generated_Source\PSoC4/cyfitter_cfg.c **** CY_CFG_UNUSED
  74:Generated_Source\PSoC4/cyfitter_cfg.c **** static void CYMEMZERO(void *s, size_t n);
  75:Generated_Source\PSoC4/cyfitter_cfg.c **** CY_CFG_UNUSED
  76:Generated_Source\PSoC4/cyfitter_cfg.c **** static void CYMEMZERO(void *s, size_t n)
  77:Generated_Source\PSoC4/cyfitter_cfg.c **** {
  78:Generated_Source\PSoC4/cyfitter_cfg.c **** 	(void)memset(s, 0, n);
  79:Generated_Source\PSoC4/cyfitter_cfg.c **** }
  80:Generated_Source\PSoC4/cyfitter_cfg.c **** CY_CFG_UNUSED
  81:Generated_Source\PSoC4/cyfitter_cfg.c **** static void CYCONFIGCPY(void *dest, const void *src, size_t n);
  82:Generated_Source\PSoC4/cyfitter_cfg.c **** CY_CFG_UNUSED
  83:Generated_Source\PSoC4/cyfitter_cfg.c **** static void CYCONFIGCPY(void *dest, const void *src, size_t n)
  84:Generated_Source\PSoC4/cyfitter_cfg.c **** {
  85:Generated_Source\PSoC4/cyfitter_cfg.c **** 	(void)memcpy(dest, src, n);
  86:Generated_Source\PSoC4/cyfitter_cfg.c **** }
  87:Generated_Source\PSoC4/cyfitter_cfg.c **** CY_CFG_UNUSED
  88:Generated_Source\PSoC4/cyfitter_cfg.c **** static void CYCONFIGCPYCODE(void *dest, const void *src, size_t n);
ARM GAS  C:\Users\11800025\AppData\Local\Temp\ccw4Umoi.s 			page 3


  89:Generated_Source\PSoC4/cyfitter_cfg.c **** CY_CFG_UNUSED
  90:Generated_Source\PSoC4/cyfitter_cfg.c **** static void CYCONFIGCPYCODE(void *dest, const void *src, size_t n)
  91:Generated_Source\PSoC4/cyfitter_cfg.c **** {
  92:Generated_Source\PSoC4/cyfitter_cfg.c **** 	(void)memcpy(dest, src, n);
  93:Generated_Source\PSoC4/cyfitter_cfg.c **** }
  94:Generated_Source\PSoC4/cyfitter_cfg.c **** 
  95:Generated_Source\PSoC4/cyfitter_cfg.c **** 
  96:Generated_Source\PSoC4/cyfitter_cfg.c **** 
  97:Generated_Source\PSoC4/cyfitter_cfg.c **** 
  98:Generated_Source\PSoC4/cyfitter_cfg.c **** /* Clock startup error codes                                                   */
  99:Generated_Source\PSoC4/cyfitter_cfg.c **** #define CYCLOCKSTART_NO_ERROR    0u
 100:Generated_Source\PSoC4/cyfitter_cfg.c **** #define CYCLOCKSTART_XTAL_ERROR  1u
 101:Generated_Source\PSoC4/cyfitter_cfg.c **** #define CYCLOCKSTART_32KHZ_ERROR 2u
 102:Generated_Source\PSoC4/cyfitter_cfg.c **** #define CYCLOCKSTART_PLL_ERROR   3u
 103:Generated_Source\PSoC4/cyfitter_cfg.c **** #define CYCLOCKSTART_FLL_ERROR   4u
 104:Generated_Source\PSoC4/cyfitter_cfg.c **** #define CYCLOCKSTART_WCO_ERROR   5u
 105:Generated_Source\PSoC4/cyfitter_cfg.c **** 
 106:Generated_Source\PSoC4/cyfitter_cfg.c **** 
 107:Generated_Source\PSoC4/cyfitter_cfg.c **** #ifdef CY_NEED_CYCLOCKSTARTUPERROR
 108:Generated_Source\PSoC4/cyfitter_cfg.c **** /*******************************************************************************
 109:Generated_Source\PSoC4/cyfitter_cfg.c **** * Function Name: CyClockStartupError
 110:Generated_Source\PSoC4/cyfitter_cfg.c **** ********************************************************************************
 111:Generated_Source\PSoC4/cyfitter_cfg.c **** * Summary:
 112:Generated_Source\PSoC4/cyfitter_cfg.c **** *  If an error is encountered during clock configuration (crystal startup error,
 113:Generated_Source\PSoC4/cyfitter_cfg.c **** *  PLL lock error, etc.), the system will end up here.  Unless reimplemented by
 114:Generated_Source\PSoC4/cyfitter_cfg.c **** *  the customer, this function will stop in an infinite loop.
 115:Generated_Source\PSoC4/cyfitter_cfg.c **** *
 116:Generated_Source\PSoC4/cyfitter_cfg.c **** * Parameters:
 117:Generated_Source\PSoC4/cyfitter_cfg.c **** *   void
 118:Generated_Source\PSoC4/cyfitter_cfg.c **** *
 119:Generated_Source\PSoC4/cyfitter_cfg.c **** * Return:
 120:Generated_Source\PSoC4/cyfitter_cfg.c **** *   void
 121:Generated_Source\PSoC4/cyfitter_cfg.c **** *
 122:Generated_Source\PSoC4/cyfitter_cfg.c **** *******************************************************************************/
 123:Generated_Source\PSoC4/cyfitter_cfg.c **** CY_CFG_UNUSED
 124:Generated_Source\PSoC4/cyfitter_cfg.c **** static void CyClockStartupError(uint8 errorCode);
 125:Generated_Source\PSoC4/cyfitter_cfg.c **** CY_CFG_UNUSED
 126:Generated_Source\PSoC4/cyfitter_cfg.c **** static void CyClockStartupError(uint8 errorCode)
 127:Generated_Source\PSoC4/cyfitter_cfg.c **** {
 128:Generated_Source\PSoC4/cyfitter_cfg.c ****     /* To remove the compiler warning if errorCode not used.                */
 129:Generated_Source\PSoC4/cyfitter_cfg.c ****     errorCode = errorCode;
 130:Generated_Source\PSoC4/cyfitter_cfg.c **** 
 131:Generated_Source\PSoC4/cyfitter_cfg.c ****     /* If we have a clock startup error (bad MHz crystal, PLL lock, etc.),  */
 132:Generated_Source\PSoC4/cyfitter_cfg.c ****     /* we will end up here to allow the customer to implement something to  */
 133:Generated_Source\PSoC4/cyfitter_cfg.c ****     /* deal with the clock condition.                                       */
 134:Generated_Source\PSoC4/cyfitter_cfg.c **** 
 135:Generated_Source\PSoC4/cyfitter_cfg.c **** #ifdef CY_CFG_CLOCK_STARTUP_ERROR_CALLBACK
 136:Generated_Source\PSoC4/cyfitter_cfg.c ****     CY_CFG_Clock_Startup_ErrorCallback();
 137:Generated_Source\PSoC4/cyfitter_cfg.c **** #else
 138:Generated_Source\PSoC4/cyfitter_cfg.c ****     /*  If not using CY_CFG_CLOCK_STARTUP_ERROR_CALLBACK, place your clock startup code here. */
 139:Generated_Source\PSoC4/cyfitter_cfg.c ****     /* `#START CyClockStartupError` */
 140:Generated_Source\PSoC4/cyfitter_cfg.c **** 
 141:Generated_Source\PSoC4/cyfitter_cfg.c **** 
 142:Generated_Source\PSoC4/cyfitter_cfg.c **** 
 143:Generated_Source\PSoC4/cyfitter_cfg.c ****     /* `#END` */
 144:Generated_Source\PSoC4/cyfitter_cfg.c **** 
 145:Generated_Source\PSoC4/cyfitter_cfg.c ****     while(1) {}
ARM GAS  C:\Users\11800025\AppData\Local\Temp\ccw4Umoi.s 			page 4


 146:Generated_Source\PSoC4/cyfitter_cfg.c **** #endif /* CY_CFG_CLOCK_STARTUP_ERROR_CALLBACK */
 147:Generated_Source\PSoC4/cyfitter_cfg.c **** }
 148:Generated_Source\PSoC4/cyfitter_cfg.c **** #endif
 149:Generated_Source\PSoC4/cyfitter_cfg.c **** 
 150:Generated_Source\PSoC4/cyfitter_cfg.c **** #define CY_CFG_BASE_ADDR_COUNT 10u
 151:Generated_Source\PSoC4/cyfitter_cfg.c **** CYPACKED typedef struct
 152:Generated_Source\PSoC4/cyfitter_cfg.c **** {
 153:Generated_Source\PSoC4/cyfitter_cfg.c **** 	uint8 offset;
 154:Generated_Source\PSoC4/cyfitter_cfg.c **** 	uint8 value;
 155:Generated_Source\PSoC4/cyfitter_cfg.c **** } CYPACKED_ATTR cy_cfg_addrvalue_t;
 156:Generated_Source\PSoC4/cyfitter_cfg.c **** 
 157:Generated_Source\PSoC4/cyfitter_cfg.c **** 
 158:Generated_Source\PSoC4/cyfitter_cfg.c **** 
 159:Generated_Source\PSoC4/cyfitter_cfg.c **** /*******************************************************************************
 160:Generated_Source\PSoC4/cyfitter_cfg.c **** * Function Name: cfg_write_bytes32
 161:Generated_Source\PSoC4/cyfitter_cfg.c **** ********************************************************************************
 162:Generated_Source\PSoC4/cyfitter_cfg.c **** * Summary:
 163:Generated_Source\PSoC4/cyfitter_cfg.c **** *  This function is used for setting up the chip configuration areas that
 164:Generated_Source\PSoC4/cyfitter_cfg.c **** *  contain relatively sparse data.
 165:Generated_Source\PSoC4/cyfitter_cfg.c **** *
 166:Generated_Source\PSoC4/cyfitter_cfg.c **** * Parameters:
 167:Generated_Source\PSoC4/cyfitter_cfg.c **** *   void
 168:Generated_Source\PSoC4/cyfitter_cfg.c **** *
 169:Generated_Source\PSoC4/cyfitter_cfg.c **** * Return:
 170:Generated_Source\PSoC4/cyfitter_cfg.c **** *   void
 171:Generated_Source\PSoC4/cyfitter_cfg.c **** *
 172:Generated_Source\PSoC4/cyfitter_cfg.c **** *******************************************************************************/
 173:Generated_Source\PSoC4/cyfitter_cfg.c **** static void cfg_write_bytes32(const uint32 addr_table[], const cy_cfg_addrvalue_t data_table[]);
 174:Generated_Source\PSoC4/cyfitter_cfg.c **** static void cfg_write_bytes32(const uint32 addr_table[], const cy_cfg_addrvalue_t data_table[])
 175:Generated_Source\PSoC4/cyfitter_cfg.c **** {
  27              		.loc 1 175 0
  28              		.cfi_startproc
  29              		@ args = 0, pretend = 0, frame = 0
  30              		@ frame_needed = 0, uses_anonymous_args = 0
  31              	.LVL0:
  32 0000 F0B5     		push	{r4, r5, r6, r7, lr}
  33              		.cfi_def_cfa_offset 20
  34              		.cfi_offset 4, -20
  35              		.cfi_offset 5, -16
  36              		.cfi_offset 6, -12
  37              		.cfi_offset 7, -8
  38              		.cfi_offset 14, -4
  39              	.LVL1:
 176:Generated_Source\PSoC4/cyfitter_cfg.c **** 	/* For 32-bit little-endian architectures */
 177:Generated_Source\PSoC4/cyfitter_cfg.c **** 	uint32 i, j = 0u;
  40              		.loc 1 177 0
  41 0002 0025     		movs	r5, #0
 178:Generated_Source\PSoC4/cyfitter_cfg.c **** 	for (i = 0u; i < CY_CFG_BASE_ADDR_COUNT; i++)
  42              		.loc 1 178 0
  43 0004 0027     		movs	r7, #0
  44 0006 11E0     		b	.L2
  45              	.LVL2:
  46              	.L5:
  47              	.LBB2:
 179:Generated_Source\PSoC4/cyfitter_cfg.c **** 	{
 180:Generated_Source\PSoC4/cyfitter_cfg.c **** 		uint32 baseAddr = addr_table[i];
  48              		.loc 1 180 0
ARM GAS  C:\Users\11800025\AppData\Local\Temp\ccw4Umoi.s 			page 5


  49 0008 BB00     		lsls	r3, r7, #2
  50 000a C658     		ldr	r6, [r0, r3]
  51              	.LVL3:
 181:Generated_Source\PSoC4/cyfitter_cfg.c **** 		uint8 count = (uint8)baseAddr;
  52              		.loc 1 181 0
  53 000c F3B2     		uxtb	r3, r6
  54              	.LVL4:
 182:Generated_Source\PSoC4/cyfitter_cfg.c **** 		baseAddr &= 0xFFFFFF00u;
  55              		.loc 1 182 0
  56 000e FF22     		movs	r2, #255
  57 0010 9643     		bics	r6, r2
  58              	.LVL5:
 183:Generated_Source\PSoC4/cyfitter_cfg.c **** 		while (count != 0u)
  59              		.loc 1 183 0
  60 0012 08E0     		b	.L3
  61              	.L4:
 184:Generated_Source\PSoC4/cyfitter_cfg.c **** 		{
 185:Generated_Source\PSoC4/cyfitter_cfg.c **** 			CY_SET_REG8((void *)(baseAddr + data_table[j].offset), data_table[j].value);
  62              		.loc 1 185 0
  63 0014 6A00     		lsls	r2, r5, #1
  64 0016 8A18     		adds	r2, r1, r2
  65 0018 1478     		ldrb	r4, [r2]
  66 001a A419     		adds	r4, r4, r6
  67 001c 5278     		ldrb	r2, [r2, #1]
  68 001e 2270     		strb	r2, [r4]
 186:Generated_Source\PSoC4/cyfitter_cfg.c **** 			j++;
  69              		.loc 1 186 0
  70 0020 0135     		adds	r5, r5, #1
  71              	.LVL6:
 187:Generated_Source\PSoC4/cyfitter_cfg.c **** 			count--;
  72              		.loc 1 187 0
  73 0022 013B     		subs	r3, r3, #1
  74              	.LVL7:
  75 0024 DBB2     		uxtb	r3, r3
  76              	.LVL8:
  77              	.L3:
 183:Generated_Source\PSoC4/cyfitter_cfg.c **** 		{
  78              		.loc 1 183 0
  79 0026 002B     		cmp	r3, #0
  80 0028 F4D1     		bne	.L4
  81              	.LBE2:
 178:Generated_Source\PSoC4/cyfitter_cfg.c **** 	{
  82              		.loc 1 178 0 discriminator 2
  83 002a 0137     		adds	r7, r7, #1
  84              	.LVL9:
  85              	.L2:
 178:Generated_Source\PSoC4/cyfitter_cfg.c **** 	{
  86              		.loc 1 178 0 is_stmt 0 discriminator 1
  87 002c 092F     		cmp	r7, #9
  88 002e EBD9     		bls	.L5
 188:Generated_Source\PSoC4/cyfitter_cfg.c **** 		}
 189:Generated_Source\PSoC4/cyfitter_cfg.c **** 	}
 190:Generated_Source\PSoC4/cyfitter_cfg.c **** }
  89              		.loc 1 190 0 is_stmt 1
  90              		@ sp needed
  91              	.LVL10:
  92              	.LVL11:
ARM GAS  C:\Users\11800025\AppData\Local\Temp\ccw4Umoi.s 			page 6


  93 0030 F0BD     		pop	{r4, r5, r6, r7, pc}
  94              		.cfi_endproc
  95              	.LFE5:
  96              		.size	cfg_write_bytes32, .-cfg_write_bytes32
  97 0032 C046     		.section	.text.AnalogSetDefault,"ax",%progbits
  98              		.align	2
  99              		.code	16
 100              		.thumb_func
 101              		.type	AnalogSetDefault, %function
 102              	AnalogSetDefault:
 103              	.LFB7:
 191:Generated_Source\PSoC4/cyfitter_cfg.c **** 
 192:Generated_Source\PSoC4/cyfitter_cfg.c **** 
 193:Generated_Source\PSoC4/cyfitter_cfg.c **** /*******************************************************************************
 194:Generated_Source\PSoC4/cyfitter_cfg.c **** * Function Name: ClockSetup
 195:Generated_Source\PSoC4/cyfitter_cfg.c **** ********************************************************************************
 196:Generated_Source\PSoC4/cyfitter_cfg.c **** *
 197:Generated_Source\PSoC4/cyfitter_cfg.c **** * Summary:
 198:Generated_Source\PSoC4/cyfitter_cfg.c **** *   Performs the initialization of all of the clocks in the device based on the
 199:Generated_Source\PSoC4/cyfitter_cfg.c **** *   settings in the Clock tab of the DWR.  This includes enabling the requested
 200:Generated_Source\PSoC4/cyfitter_cfg.c **** *   clocks and setting the necessary dividers to produce the desired frequency. 
 201:Generated_Source\PSoC4/cyfitter_cfg.c **** *
 202:Generated_Source\PSoC4/cyfitter_cfg.c **** * Parameters:
 203:Generated_Source\PSoC4/cyfitter_cfg.c **** *   void
 204:Generated_Source\PSoC4/cyfitter_cfg.c **** *
 205:Generated_Source\PSoC4/cyfitter_cfg.c **** * Return:
 206:Generated_Source\PSoC4/cyfitter_cfg.c **** *   void
 207:Generated_Source\PSoC4/cyfitter_cfg.c **** *
 208:Generated_Source\PSoC4/cyfitter_cfg.c **** *******************************************************************************/
 209:Generated_Source\PSoC4/cyfitter_cfg.c **** static void ClockSetup(void);
 210:Generated_Source\PSoC4/cyfitter_cfg.c **** CY_CFG_SECTION
 211:Generated_Source\PSoC4/cyfitter_cfg.c **** static void ClockSetup(void)
 212:Generated_Source\PSoC4/cyfitter_cfg.c **** {
 213:Generated_Source\PSoC4/cyfitter_cfg.c **** 
 214:Generated_Source\PSoC4/cyfitter_cfg.c **** 	/* Set Flash Cycles based on max possible frequency in case a glitch occurs during ClockSetup(). *
 215:Generated_Source\PSoC4/cyfitter_cfg.c **** 	CY_SET_REG32((void CYXDATA *)(CYREG_CPUSS_FLASH_CTL), (0x0012u));
 216:Generated_Source\PSoC4/cyfitter_cfg.c **** 
 217:Generated_Source\PSoC4/cyfitter_cfg.c **** 	/* Start the WCO */
 218:Generated_Source\PSoC4/cyfitter_cfg.c **** 	CySysClkWcoStart();
 219:Generated_Source\PSoC4/cyfitter_cfg.c **** 	CyDelayCycles(12000000u); /* WCO may take up to 500ms to start */
 220:Generated_Source\PSoC4/cyfitter_cfg.c **** 	(void)CySysClkWcoSetPowerMode(CY_SYS_CLK_WCO_LPM);    /* Switch to the low power mode */
 221:Generated_Source\PSoC4/cyfitter_cfg.c **** 
 222:Generated_Source\PSoC4/cyfitter_cfg.c **** 	/* Setup and trim IMO based on desired frequency. */
 223:Generated_Source\PSoC4/cyfitter_cfg.c **** 	CySysClkWriteImoFreq(48u);
 224:Generated_Source\PSoC4/cyfitter_cfg.c **** 	/* CYDEV_CLK_ILO_CONFIG Starting address: CYDEV_CLK_ILO_CONFIG */
 225:Generated_Source\PSoC4/cyfitter_cfg.c **** 	CY_SET_REG32((void *)(CYREG_CLK_ILO_CONFIG), 0x80000006u);
 226:Generated_Source\PSoC4/cyfitter_cfg.c **** 
 227:Generated_Source\PSoC4/cyfitter_cfg.c **** 	/* CYDEV_WDT_CONFIG Starting address: CYDEV_WDT_CONFIG */
 228:Generated_Source\PSoC4/cyfitter_cfg.c **** 	CY_SET_REG32((void *)(CYREG_WDT_CONFIG), 0x40000000u);
 229:Generated_Source\PSoC4/cyfitter_cfg.c **** 
 230:Generated_Source\PSoC4/cyfitter_cfg.c **** 
 231:Generated_Source\PSoC4/cyfitter_cfg.c **** 	/* Enable fast start mode for XO */
 232:Generated_Source\PSoC4/cyfitter_cfg.c **** 	CY_SET_REG32((void*)CYREG_BLE_BLERD_BB_XO, CY_GET_REG32((void*)CYREG_BLE_BLERD_BB_XO) | (uint32)0x
 233:Generated_Source\PSoC4/cyfitter_cfg.c **** 	CY_SET_REG32((void *)(CYREG_BLE_BLERD_BB_XO_CAPTRIM), 0x00003E2Du);
 234:Generated_Source\PSoC4/cyfitter_cfg.c **** 	/*Set XTAL(ECO) divider*/
 235:Generated_Source\PSoC4/cyfitter_cfg.c **** 	CY_SET_REG32((void *)(CYREG_BLE_BLESS_XTAL_CLK_DIV_CONFIG), 0x00000000u);
 236:Generated_Source\PSoC4/cyfitter_cfg.c **** 	/* Disable Crystal Stable Interrupt before enabling ECO */
ARM GAS  C:\Users\11800025\AppData\Local\Temp\ccw4Umoi.s 			page 7


 237:Generated_Source\PSoC4/cyfitter_cfg.c **** 	CY_SET_REG32((void*)CYREG_BLE_BLESS_LL_DSM_CTRL, CY_GET_REG32((void*)CYREG_BLE_BLESS_LL_DSM_CTRL) 
 238:Generated_Source\PSoC4/cyfitter_cfg.c **** 	/* Start the ECO and do not check status since it is not needed for HFCLK */
 239:Generated_Source\PSoC4/cyfitter_cfg.c **** 	(void)CySysClkEcoStart(2000u);
 240:Generated_Source\PSoC4/cyfitter_cfg.c **** 	CyDelayUs(1500u); /* Wait to stabilize */
 241:Generated_Source\PSoC4/cyfitter_cfg.c **** 
 242:Generated_Source\PSoC4/cyfitter_cfg.c **** 	/* Setup phase aligned clocks */
 243:Generated_Source\PSoC4/cyfitter_cfg.c **** 	CY_SET_REG32((void *)CYREG_PERI_DIV_16_CTL2, 0x0003FC00u);
 244:Generated_Source\PSoC4/cyfitter_cfg.c **** 	CY_SET_REG32((void *)CYREG_PERI_DIV_CMD, 0x8000FF42u);
 245:Generated_Source\PSoC4/cyfitter_cfg.c **** 	CY_SET_REG32((void *)CYREG_PERI_DIV_16_CTL1, 0x0001DF00u);
 246:Generated_Source\PSoC4/cyfitter_cfg.c **** 	CY_SET_REG32((void *)CYREG_PERI_DIV_CMD, 0x8000FF41u);
 247:Generated_Source\PSoC4/cyfitter_cfg.c **** 	CY_SET_REG32((void *)CYREG_PERI_DIV_16_CTL3, 0x000B0700u);
 248:Generated_Source\PSoC4/cyfitter_cfg.c **** 	CY_SET_REG32((void *)CYREG_PERI_DIV_CMD, 0x8000FF43u);
 249:Generated_Source\PSoC4/cyfitter_cfg.c **** 	CY_SET_REG32((void *)CYREG_PERI_DIV_16_CTL0, 0x0001A000u);
 250:Generated_Source\PSoC4/cyfitter_cfg.c **** 	CY_SET_REG32((void *)CYREG_PERI_DIV_CMD, 0x8000FF40u);
 251:Generated_Source\PSoC4/cyfitter_cfg.c **** 
 252:Generated_Source\PSoC4/cyfitter_cfg.c **** 	/* CYDEV_CLK_IMO_CONFIG Starting address: CYDEV_CLK_IMO_CONFIG */
 253:Generated_Source\PSoC4/cyfitter_cfg.c **** 	CY_SET_REG32((void *)(CYREG_CLK_IMO_CONFIG), 0x80000000u);
 254:Generated_Source\PSoC4/cyfitter_cfg.c **** 
 255:Generated_Source\PSoC4/cyfitter_cfg.c **** 	/* CYDEV_CLK_SELECT Starting address: CYDEV_CLK_SELECT */
 256:Generated_Source\PSoC4/cyfitter_cfg.c **** 	CY_SET_REG32((void *)(CYREG_CLK_SELECT), 0x00040000u);
 257:Generated_Source\PSoC4/cyfitter_cfg.c **** 
 258:Generated_Source\PSoC4/cyfitter_cfg.c **** 	/* CYDEV_PERI_PCLK_CTL14 Starting address: CYDEV_PERI_PCLK_CTL14 */
 259:Generated_Source\PSoC4/cyfitter_cfg.c **** 	CY_SET_REG32((void *)(CYREG_PERI_PCLK_CTL14), 0x00000042u);
 260:Generated_Source\PSoC4/cyfitter_cfg.c **** 
 261:Generated_Source\PSoC4/cyfitter_cfg.c **** 	/* CYDEV_PERI_PCLK_CTL12 Starting address: CYDEV_PERI_PCLK_CTL12 */
 262:Generated_Source\PSoC4/cyfitter_cfg.c **** 	CY_SET_REG32((void *)(CYREG_PERI_PCLK_CTL12), 0x00000041u);
 263:Generated_Source\PSoC4/cyfitter_cfg.c **** 
 264:Generated_Source\PSoC4/cyfitter_cfg.c **** 	/* CYDEV_PERI_PCLK_CTL9 Starting address: CYDEV_PERI_PCLK_CTL9 */
 265:Generated_Source\PSoC4/cyfitter_cfg.c **** 	CY_SET_REG32((void *)(CYREG_PERI_PCLK_CTL9), 0x00000043u);
 266:Generated_Source\PSoC4/cyfitter_cfg.c **** 
 267:Generated_Source\PSoC4/cyfitter_cfg.c **** 	/* CYDEV_PERI_PCLK_CTL8 Starting address: CYDEV_PERI_PCLK_CTL8 */
 268:Generated_Source\PSoC4/cyfitter_cfg.c **** 	CY_SET_REG32((void *)(CYREG_PERI_PCLK_CTL8), 0x00000043u);
 269:Generated_Source\PSoC4/cyfitter_cfg.c **** 
 270:Generated_Source\PSoC4/cyfitter_cfg.c **** 	/* CYDEV_PERI_PCLK_CTL7 Starting address: CYDEV_PERI_PCLK_CTL7 */
 271:Generated_Source\PSoC4/cyfitter_cfg.c **** 	CY_SET_REG32((void *)(CYREG_PERI_PCLK_CTL7), 0x00000043u);
 272:Generated_Source\PSoC4/cyfitter_cfg.c **** 
 273:Generated_Source\PSoC4/cyfitter_cfg.c **** 	/* CYDEV_PERI_PCLK_CTL1 Starting address: CYDEV_PERI_PCLK_CTL1 */
 274:Generated_Source\PSoC4/cyfitter_cfg.c **** 	CY_SET_REG32((void *)(CYREG_PERI_PCLK_CTL1), 0x00000040u);
 275:Generated_Source\PSoC4/cyfitter_cfg.c **** 
 276:Generated_Source\PSoC4/cyfitter_cfg.c **** 	(void)CyIntSetVector(8u, &CySysWdtIsr);
 277:Generated_Source\PSoC4/cyfitter_cfg.c **** 	CyIntEnable(8u);
 278:Generated_Source\PSoC4/cyfitter_cfg.c **** 	CY_SET_REG32((void *)(CYREG_WDT_CONFIG), 0x40000000u);
 279:Generated_Source\PSoC4/cyfitter_cfg.c **** }
 280:Generated_Source\PSoC4/cyfitter_cfg.c **** 
 281:Generated_Source\PSoC4/cyfitter_cfg.c **** 
 282:Generated_Source\PSoC4/cyfitter_cfg.c **** /* Analog API Functions */
 283:Generated_Source\PSoC4/cyfitter_cfg.c **** 
 284:Generated_Source\PSoC4/cyfitter_cfg.c **** 
 285:Generated_Source\PSoC4/cyfitter_cfg.c **** /*******************************************************************************
 286:Generated_Source\PSoC4/cyfitter_cfg.c **** * Function Name: AnalogSetDefault
 287:Generated_Source\PSoC4/cyfitter_cfg.c **** ********************************************************************************
 288:Generated_Source\PSoC4/cyfitter_cfg.c **** *
 289:Generated_Source\PSoC4/cyfitter_cfg.c **** * Summary:
 290:Generated_Source\PSoC4/cyfitter_cfg.c **** *  Sets up the analog portions of the chip to default values based on chip
 291:Generated_Source\PSoC4/cyfitter_cfg.c **** *  configuration options from the project.
 292:Generated_Source\PSoC4/cyfitter_cfg.c **** *
 293:Generated_Source\PSoC4/cyfitter_cfg.c **** * Parameters:
ARM GAS  C:\Users\11800025\AppData\Local\Temp\ccw4Umoi.s 			page 8


 294:Generated_Source\PSoC4/cyfitter_cfg.c **** *  void
 295:Generated_Source\PSoC4/cyfitter_cfg.c **** *
 296:Generated_Source\PSoC4/cyfitter_cfg.c **** * Return:
 297:Generated_Source\PSoC4/cyfitter_cfg.c **** *  void
 298:Generated_Source\PSoC4/cyfitter_cfg.c **** *
 299:Generated_Source\PSoC4/cyfitter_cfg.c **** *******************************************************************************/
 300:Generated_Source\PSoC4/cyfitter_cfg.c **** static void AnalogSetDefault(void);
 301:Generated_Source\PSoC4/cyfitter_cfg.c **** static void AnalogSetDefault(void)
 302:Generated_Source\PSoC4/cyfitter_cfg.c **** {
 104              		.loc 1 302 0
 105              		.cfi_startproc
 106              		@ args = 0, pretend = 0, frame = 0
 107              		@ frame_needed = 0, uses_anonymous_args = 0
 108              		@ link register save eliminated.
 303:Generated_Source\PSoC4/cyfitter_cfg.c **** 	CY_SET_XTND_REG32((void CYFAR *)CYREG_CTBM0_DFT_CTRL, 0x00000003u);
 109              		.loc 1 303 0
 110 0000 0323     		movs	r3, #3
 111 0002 044A     		ldr	r2, .L7
 112 0004 1360     		str	r3, [r2]
 304:Generated_Source\PSoC4/cyfitter_cfg.c **** 	CY_SET_XTND_REG32((void CYFAR *)CYREG_CTBM1_DFT_CTRL, 0x00000003u);
 113              		.loc 1 304 0
 114 0006 044A     		ldr	r2, .L7+4
 115 0008 1360     		str	r3, [r2]
 305:Generated_Source\PSoC4/cyfitter_cfg.c **** 	CY_SET_XTND_REG32((void CYFAR *)CYREG_PASS_DSAB_DSAB_CTRL, 0x00000000u);
 116              		.loc 1 305 0
 117 000a 0022     		movs	r2, #0
 118 000c 034B     		ldr	r3, .L7+8
 119 000e 1A60     		str	r2, [r3]
 306:Generated_Source\PSoC4/cyfitter_cfg.c **** }
 120              		.loc 1 306 0
 121              		@ sp needed
 122 0010 7047     		bx	lr
 123              	.L8:
 124 0012 C046     		.align	2
 125              	.L7:
 126 0014 30003040 		.word	1076887600
 127 0018 30003140 		.word	1076953136
 128 001c 000E3F40 		.word	1077874176
 129              		.cfi_endproc
 130              	.LFE7:
 131              		.size	AnalogSetDefault, .-AnalogSetDefault
 132              		.section	.text.CYMEMZERO,"ax",%progbits
 133              		.align	2
 134              		.code	16
 135              		.thumb_func
 136              		.type	CYMEMZERO, %function
 137              	CYMEMZERO:
 138              	.LFB2:
  77:Generated_Source\PSoC4/cyfitter_cfg.c **** 	(void)memset(s, 0, n);
 139              		.loc 1 77 0
 140              		.cfi_startproc
 141              		@ args = 0, pretend = 0, frame = 0
 142              		@ frame_needed = 0, uses_anonymous_args = 0
 143              	.LVL12:
 144 0000 10B5     		push	{r4, lr}
 145              		.cfi_def_cfa_offset 8
 146              		.cfi_offset 4, -8
ARM GAS  C:\Users\11800025\AppData\Local\Temp\ccw4Umoi.s 			page 9


 147              		.cfi_offset 14, -4
 148 0002 0A00     		movs	r2, r1
  78:Generated_Source\PSoC4/cyfitter_cfg.c **** }
 149              		.loc 1 78 0
 150 0004 0021     		movs	r1, #0
 151              	.LVL13:
 152 0006 FFF7FEFF 		bl	memset
 153              	.LVL14:
  79:Generated_Source\PSoC4/cyfitter_cfg.c **** CY_CFG_UNUSED
 154              		.loc 1 79 0
 155              		@ sp needed
 156 000a 10BD     		pop	{r4, pc}
 157              		.cfi_endproc
 158              	.LFE2:
 159              		.size	CYMEMZERO, .-CYMEMZERO
 160              		.section	.psocinit,"ax",%progbits
 161              		.align	2
 162              		.code	16
 163              		.thumb_func
 164              		.type	ClockSetup, %function
 165              	ClockSetup:
 166              	.LFB6:
 212:Generated_Source\PSoC4/cyfitter_cfg.c **** 
 167              		.loc 1 212 0
 168              		.cfi_startproc
 169              		@ args = 0, pretend = 0, frame = 0
 170              		@ frame_needed = 0, uses_anonymous_args = 0
 171 0000 70B5     		push	{r4, r5, r6, lr}
 172              		.cfi_def_cfa_offset 16
 173              		.cfi_offset 4, -16
 174              		.cfi_offset 5, -12
 175              		.cfi_offset 6, -8
 176              		.cfi_offset 14, -4
 215:Generated_Source\PSoC4/cyfitter_cfg.c **** 
 177              		.loc 1 215 0
 178 0002 1222     		movs	r2, #18
 179 0004 314B     		ldr	r3, .L11
 180 0006 1A60     		str	r2, [r3]
 218:Generated_Source\PSoC4/cyfitter_cfg.c **** 	CyDelayCycles(12000000u); /* WCO may take up to 500ms to start */
 181              		.loc 1 218 0
 182 0008 FFF7FEFF 		bl	CySysClkWcoStart
 183              	.LVL15:
 219:Generated_Source\PSoC4/cyfitter_cfg.c **** 	(void)CySysClkWcoSetPowerMode(CY_SYS_CLK_WCO_LPM);    /* Switch to the low power mode */
 184              		.loc 1 219 0
 185 000c 3048     		ldr	r0, .L11+4
 186 000e FFF7FEFF 		bl	CyDelayCycles
 187              	.LVL16:
 220:Generated_Source\PSoC4/cyfitter_cfg.c **** 
 188              		.loc 1 220 0
 189 0012 0120     		movs	r0, #1
 190 0014 FFF7FEFF 		bl	CySysClkWcoSetPowerMode
 191              	.LVL17:
 223:Generated_Source\PSoC4/cyfitter_cfg.c **** 	/* CYDEV_CLK_ILO_CONFIG Starting address: CYDEV_CLK_ILO_CONFIG */
 192              		.loc 1 223 0
 193 0018 3020     		movs	r0, #48
 194 001a FFF7FEFF 		bl	CySysClkWriteImoFreq
 195              	.LVL18:
ARM GAS  C:\Users\11800025\AppData\Local\Temp\ccw4Umoi.s 			page 10


 225:Generated_Source\PSoC4/cyfitter_cfg.c **** 
 196              		.loc 1 225 0
 197 001e 2D4A     		ldr	r2, .L11+8
 198 0020 2D4B     		ldr	r3, .L11+12
 199 0022 1A60     		str	r2, [r3]
 228:Generated_Source\PSoC4/cyfitter_cfg.c **** 
 200              		.loc 1 228 0
 201 0024 2D4C     		ldr	r4, .L11+16
 202 0026 8025     		movs	r5, #128
 203 0028 ED05     		lsls	r5, r5, #23
 204 002a 2560     		str	r5, [r4]
 232:Generated_Source\PSoC4/cyfitter_cfg.c **** 	CY_SET_REG32((void *)(CYREG_BLE_BLERD_BB_XO_CAPTRIM), 0x00003E2Du);
 205              		.loc 1 232 0
 206 002c 2C4A     		ldr	r2, .L11+20
 207 002e 1168     		ldr	r1, [r2]
 208 0030 0223     		movs	r3, #2
 209 0032 0B43     		orrs	r3, r1
 210 0034 1360     		str	r3, [r2]
 233:Generated_Source\PSoC4/cyfitter_cfg.c **** 	/*Set XTAL(ECO) divider*/
 211              		.loc 1 233 0
 212 0036 2B4A     		ldr	r2, .L11+24
 213 0038 2B4B     		ldr	r3, .L11+28
 214 003a 1A60     		str	r2, [r3]
 235:Generated_Source\PSoC4/cyfitter_cfg.c **** 	/* Disable Crystal Stable Interrupt before enabling ECO */
 215              		.loc 1 235 0
 216 003c 0022     		movs	r2, #0
 217 003e 2B4B     		ldr	r3, .L11+32
 218 0040 1A60     		str	r2, [r3]
 237:Generated_Source\PSoC4/cyfitter_cfg.c **** 	/* Start the ECO and do not check status since it is not needed for HFCLK */
 219              		.loc 1 237 0
 220 0042 2B4A     		ldr	r2, .L11+36
 221 0044 1368     		ldr	r3, [r2]
 222 0046 0821     		movs	r1, #8
 223 0048 8B43     		bics	r3, r1
 224 004a 1360     		str	r3, [r2]
 239:Generated_Source\PSoC4/cyfitter_cfg.c **** 	CyDelayUs(1500u); /* Wait to stabilize */
 225              		.loc 1 239 0
 226 004c FA20     		movs	r0, #250
 227 004e C000     		lsls	r0, r0, #3
 228 0050 FFF7FEFF 		bl	CySysClkEcoStart
 229              	.LVL19:
 240:Generated_Source\PSoC4/cyfitter_cfg.c **** 
 230              		.loc 1 240 0
 231 0054 2748     		ldr	r0, .L11+40
 232 0056 FFF7FEFF 		bl	CyDelayUs
 233              	.LVL20:
 243:Generated_Source\PSoC4/cyfitter_cfg.c **** 	CY_SET_REG32((void *)CYREG_PERI_DIV_CMD, 0x8000FF42u);
 234              		.loc 1 243 0
 235 005a FF22     		movs	r2, #255
 236 005c 9202     		lsls	r2, r2, #10
 237 005e 264B     		ldr	r3, .L11+44
 238 0060 1A60     		str	r2, [r3]
 244:Generated_Source\PSoC4/cyfitter_cfg.c **** 	CY_SET_REG32((void *)CYREG_PERI_DIV_16_CTL1, 0x0001DF00u);
 239              		.loc 1 244 0
 240 0062 264B     		ldr	r3, .L11+48
 241 0064 264A     		ldr	r2, .L11+52
 242 0066 1A60     		str	r2, [r3]
ARM GAS  C:\Users\11800025\AppData\Local\Temp\ccw4Umoi.s 			page 11


 245:Generated_Source\PSoC4/cyfitter_cfg.c **** 	CY_SET_REG32((void *)CYREG_PERI_DIV_CMD, 0x8000FF41u);
 243              		.loc 1 245 0
 244 0068 2649     		ldr	r1, .L11+56
 245 006a 274A     		ldr	r2, .L11+60
 246 006c 1160     		str	r1, [r2]
 246:Generated_Source\PSoC4/cyfitter_cfg.c **** 	CY_SET_REG32((void *)CYREG_PERI_DIV_16_CTL3, 0x000B0700u);
 247              		.loc 1 246 0
 248 006e 274A     		ldr	r2, .L11+64
 249 0070 1A60     		str	r2, [r3]
 247:Generated_Source\PSoC4/cyfitter_cfg.c **** 	CY_SET_REG32((void *)CYREG_PERI_DIV_CMD, 0x8000FF43u);
 250              		.loc 1 247 0
 251 0072 2749     		ldr	r1, .L11+68
 252 0074 274A     		ldr	r2, .L11+72
 253 0076 1160     		str	r1, [r2]
 248:Generated_Source\PSoC4/cyfitter_cfg.c **** 	CY_SET_REG32((void *)CYREG_PERI_DIV_16_CTL0, 0x0001A000u);
 254              		.loc 1 248 0
 255 0078 274A     		ldr	r2, .L11+76
 256 007a 1A60     		str	r2, [r3]
 249:Generated_Source\PSoC4/cyfitter_cfg.c **** 	CY_SET_REG32((void *)CYREG_PERI_DIV_CMD, 0x8000FF40u);
 257              		.loc 1 249 0
 258 007c D021     		movs	r1, #208
 259 007e 4902     		lsls	r1, r1, #9
 260 0080 264A     		ldr	r2, .L11+80
 261 0082 1160     		str	r1, [r2]
 250:Generated_Source\PSoC4/cyfitter_cfg.c **** 
 262              		.loc 1 250 0
 263 0084 264A     		ldr	r2, .L11+84
 264 0086 1A60     		str	r2, [r3]
 253:Generated_Source\PSoC4/cyfitter_cfg.c **** 
 265              		.loc 1 253 0
 266 0088 8022     		movs	r2, #128
 267 008a 1206     		lsls	r2, r2, #24
 268 008c 254B     		ldr	r3, .L11+88
 269 008e 1A60     		str	r2, [r3]
 256:Generated_Source\PSoC4/cyfitter_cfg.c **** 
 270              		.loc 1 256 0
 271 0090 8022     		movs	r2, #128
 272 0092 D202     		lsls	r2, r2, #11
 273 0094 244B     		ldr	r3, .L11+92
 274 0096 1A60     		str	r2, [r3]
 259:Generated_Source\PSoC4/cyfitter_cfg.c **** 
 275              		.loc 1 259 0
 276 0098 4222     		movs	r2, #66
 277 009a 244B     		ldr	r3, .L11+96
 278 009c 1A60     		str	r2, [r3]
 262:Generated_Source\PSoC4/cyfitter_cfg.c **** 
 279              		.loc 1 262 0
 280 009e 013A     		subs	r2, r2, #1
 281 00a0 234B     		ldr	r3, .L11+100
 282 00a2 1A60     		str	r2, [r3]
 265:Generated_Source\PSoC4/cyfitter_cfg.c **** 
 283              		.loc 1 265 0
 284 00a4 4323     		movs	r3, #67
 285 00a6 234A     		ldr	r2, .L11+104
 286 00a8 1360     		str	r3, [r2]
 268:Generated_Source\PSoC4/cyfitter_cfg.c **** 
 287              		.loc 1 268 0
ARM GAS  C:\Users\11800025\AppData\Local\Temp\ccw4Umoi.s 			page 12


 288 00aa 234A     		ldr	r2, .L11+108
 289 00ac 1360     		str	r3, [r2]
 271:Generated_Source\PSoC4/cyfitter_cfg.c **** 
 290              		.loc 1 271 0
 291 00ae 234A     		ldr	r2, .L11+112
 292 00b0 1360     		str	r3, [r2]
 274:Generated_Source\PSoC4/cyfitter_cfg.c **** 
 293              		.loc 1 274 0
 294 00b2 4022     		movs	r2, #64
 295 00b4 224B     		ldr	r3, .L11+116
 296 00b6 1A60     		str	r2, [r3]
 276:Generated_Source\PSoC4/cyfitter_cfg.c **** 	CyIntEnable(8u);
 297              		.loc 1 276 0
 298 00b8 2249     		ldr	r1, .L11+120
 299 00ba 0820     		movs	r0, #8
 300 00bc FFF7FEFF 		bl	CyIntSetVector
 301              	.LVL21:
 277:Generated_Source\PSoC4/cyfitter_cfg.c **** 	CY_SET_REG32((void *)(CYREG_WDT_CONFIG), 0x40000000u);
 302              		.loc 1 277 0
 303 00c0 0820     		movs	r0, #8
 304 00c2 FFF7FEFF 		bl	CyIntEnable
 305              	.LVL22:
 278:Generated_Source\PSoC4/cyfitter_cfg.c **** }
 306              		.loc 1 278 0
 307 00c6 2560     		str	r5, [r4]
 279:Generated_Source\PSoC4/cyfitter_cfg.c **** 
 308              		.loc 1 279 0
 309              		@ sp needed
 310 00c8 70BD     		pop	{r4, r5, r6, pc}
 311              	.L12:
 312 00ca C046     		.align	2
 313              	.L11:
 314 00cc 30001040 		.word	1074790448
 315 00d0 001BB700 		.word	12000000
 316 00d4 06000080 		.word	-2147483642
 317 00d8 04010B40 		.word	1074462980
 318 00dc 0C020B40 		.word	1074463244
 319 00e0 78002E40 		.word	1076756600
 320 00e4 2D3E0000 		.word	15917
 321 00e8 7C002E40 		.word	1076756604
 322 00ec 64F02E40 		.word	1076818020
 323 00f0 6CF02E40 		.word	1076818028
 324 00f4 DC050000 		.word	1500
 325 00f8 08030140 		.word	1073808136
 326 00fc 00000140 		.word	1073807360
 327 0100 42FF0080 		.word	-2147418302
 328 0104 00DF0100 		.word	122624
 329 0108 04030140 		.word	1073808132
 330 010c 41FF0080 		.word	-2147418303
 331 0110 00070B00 		.word	722688
 332 0114 0C030140 		.word	1073808140
 333 0118 43FF0080 		.word	-2147418301
 334 011c 00030140 		.word	1073808128
 335 0120 40FF0080 		.word	-2147418304
 336 0124 08010B40 		.word	1074462984
 337 0128 00010B40 		.word	1074462976
 338 012c 38010140 		.word	1073807672
ARM GAS  C:\Users\11800025\AppData\Local\Temp\ccw4Umoi.s 			page 13


 339 0130 30010140 		.word	1073807664
 340 0134 24010140 		.word	1073807652
 341 0138 20010140 		.word	1073807648
 342 013c 1C010140 		.word	1073807644
 343 0140 04010140 		.word	1073807620
 344 0144 00000000 		.word	CySysWdtIsr
 345              		.cfi_endproc
 346              	.LFE6:
 347              		.size	ClockSetup, .-ClockSetup
 348              		.align	2
 349              		.global	cyfitter_cfg
 350              		.code	16
 351              		.thumb_func
 352              		.type	cyfitter_cfg, %function
 353              	cyfitter_cfg:
 354              	.LFB8:
 307:Generated_Source\PSoC4/cyfitter_cfg.c **** 
 308:Generated_Source\PSoC4/cyfitter_cfg.c **** 
 309:Generated_Source\PSoC4/cyfitter_cfg.c **** 
 310:Generated_Source\PSoC4/cyfitter_cfg.c **** 
 311:Generated_Source\PSoC4/cyfitter_cfg.c **** /*******************************************************************************
 312:Generated_Source\PSoC4/cyfitter_cfg.c **** * Function Name: cyfitter_cfg
 313:Generated_Source\PSoC4/cyfitter_cfg.c **** ********************************************************************************
 314:Generated_Source\PSoC4/cyfitter_cfg.c **** * Summary:
 315:Generated_Source\PSoC4/cyfitter_cfg.c **** *  This function is called by the start-up code for the selected device. It
 316:Generated_Source\PSoC4/cyfitter_cfg.c **** *  performs all of the necessary device configuration based on the design
 317:Generated_Source\PSoC4/cyfitter_cfg.c **** *  settings.  This includes settings from the Design Wide Resources (DWR) such
 318:Generated_Source\PSoC4/cyfitter_cfg.c **** *  as Clocks and Pins as well as any component configuration that is necessary.
 319:Generated_Source\PSoC4/cyfitter_cfg.c **** *
 320:Generated_Source\PSoC4/cyfitter_cfg.c **** * Parameters:
 321:Generated_Source\PSoC4/cyfitter_cfg.c **** *   void
 322:Generated_Source\PSoC4/cyfitter_cfg.c **** *
 323:Generated_Source\PSoC4/cyfitter_cfg.c **** * Return:
 324:Generated_Source\PSoC4/cyfitter_cfg.c **** *   void
 325:Generated_Source\PSoC4/cyfitter_cfg.c **** *
 326:Generated_Source\PSoC4/cyfitter_cfg.c **** *******************************************************************************/
 327:Generated_Source\PSoC4/cyfitter_cfg.c **** CY_CFG_SECTION
 328:Generated_Source\PSoC4/cyfitter_cfg.c **** void cyfitter_cfg(void)
 329:Generated_Source\PSoC4/cyfitter_cfg.c **** {
 355              		.loc 1 329 0
 356              		.cfi_startproc
 357              		@ args = 0, pretend = 0, frame = 0
 358              		@ frame_needed = 0, uses_anonymous_args = 0
 359 0148 10B5     		push	{r4, lr}
 360              		.cfi_def_cfa_offset 8
 361              		.cfi_offset 4, -8
 362              		.cfi_offset 14, -4
 330:Generated_Source\PSoC4/cyfitter_cfg.c **** 	/* Disable interrupts by default. Let user enable if/when they want. */
 331:Generated_Source\PSoC4/cyfitter_cfg.c **** 	CyGlobalIntDisable;
 363              		.loc 1 331 0
 364              		.syntax divided
 365              	@ 331 "Generated_Source\PSoC4\cyfitter_cfg.c" 1
 366 014a 72B6     		CPSID   i
 367              	@ 0 "" 2
 332:Generated_Source\PSoC4/cyfitter_cfg.c **** 
 333:Generated_Source\PSoC4/cyfitter_cfg.c **** 	CY_SET_REG32((void *)(CYREG_BLE_BLESS_LL_DSM_CTRL), 0x00000000u);
 368              		.loc 1 333 0
ARM GAS  C:\Users\11800025\AppData\Local\Temp\ccw4Umoi.s 			page 14


 369              		.thumb
 370              		.syntax unified
 371 014c 0022     		movs	r2, #0
 372 014e 334B     		ldr	r3, .L16
 373 0150 1A60     		str	r2, [r3]
 374              	.LVL23:
 375              	.LBB3:
 334:Generated_Source\PSoC4/cyfitter_cfg.c **** 
 335:Generated_Source\PSoC4/cyfitter_cfg.c **** 	{
 336:Generated_Source\PSoC4/cyfitter_cfg.c **** 		static const uint32 CYCODE cy_cfg_addr_table[] = {
 337:Generated_Source\PSoC4/cyfitter_cfg.c **** 			0x400F0003u, /* Base address: 0x400F0000 Count: 3 */
 338:Generated_Source\PSoC4/cyfitter_cfg.c **** 			0x400F3052u, /* Base address: 0x400F3000 Count: 82 */
 339:Generated_Source\PSoC4/cyfitter_cfg.c **** 			0x400F312Cu, /* Base address: 0x400F3100 Count: 44 */
 340:Generated_Source\PSoC4/cyfitter_cfg.c **** 			0x400F323Eu, /* Base address: 0x400F3200 Count: 62 */
 341:Generated_Source\PSoC4/cyfitter_cfg.c **** 			0x400F3320u, /* Base address: 0x400F3300 Count: 32 */
 342:Generated_Source\PSoC4/cyfitter_cfg.c **** 			0x400F4002u, /* Base address: 0x400F4000 Count: 2 */
 343:Generated_Source\PSoC4/cyfitter_cfg.c **** 			0x400F4107u, /* Base address: 0x400F4100 Count: 7 */
 344:Generated_Source\PSoC4/cyfitter_cfg.c **** 			0x400F4205u, /* Base address: 0x400F4200 Count: 5 */
 345:Generated_Source\PSoC4/cyfitter_cfg.c **** 			0x400F430Cu, /* Base address: 0x400F4300 Count: 12 */
 346:Generated_Source\PSoC4/cyfitter_cfg.c **** 			0x400F6002u, /* Base address: 0x400F6000 Count: 2 */
 347:Generated_Source\PSoC4/cyfitter_cfg.c **** 		};
 348:Generated_Source\PSoC4/cyfitter_cfg.c **** 
 349:Generated_Source\PSoC4/cyfitter_cfg.c **** 		static const cy_cfg_addrvalue_t CYCODE cy_cfg_data_table[] = {
 350:Generated_Source\PSoC4/cyfitter_cfg.c **** 			{0x80u, 0x0Du},
 351:Generated_Source\PSoC4/cyfitter_cfg.c **** 			{0x81u, 0x0Du},
 352:Generated_Source\PSoC4/cyfitter_cfg.c **** 			{0x83u, 0x0Du},
 353:Generated_Source\PSoC4/cyfitter_cfg.c **** 			{0x06u, 0x01u},
 354:Generated_Source\PSoC4/cyfitter_cfg.c **** 			{0x07u, 0x01u},
 355:Generated_Source\PSoC4/cyfitter_cfg.c **** 			{0x12u, 0x08u},
 356:Generated_Source\PSoC4/cyfitter_cfg.c **** 			{0x14u, 0x04u},
 357:Generated_Source\PSoC4/cyfitter_cfg.c **** 			{0x17u, 0x01u},
 358:Generated_Source\PSoC4/cyfitter_cfg.c **** 			{0x26u, 0x07u},
 359:Generated_Source\PSoC4/cyfitter_cfg.c **** 			{0x30u, 0x01u},
 360:Generated_Source\PSoC4/cyfitter_cfg.c **** 			{0x32u, 0x02u},
 361:Generated_Source\PSoC4/cyfitter_cfg.c **** 			{0x33u, 0x01u},
 362:Generated_Source\PSoC4/cyfitter_cfg.c **** 			{0x34u, 0x08u},
 363:Generated_Source\PSoC4/cyfitter_cfg.c **** 			{0x36u, 0x04u},
 364:Generated_Source\PSoC4/cyfitter_cfg.c **** 			{0x3Fu, 0x04u},
 365:Generated_Source\PSoC4/cyfitter_cfg.c **** 			{0x40u, 0x20u},
 366:Generated_Source\PSoC4/cyfitter_cfg.c **** 			{0x41u, 0x06u},
 367:Generated_Source\PSoC4/cyfitter_cfg.c **** 			{0x45u, 0xD1u},
 368:Generated_Source\PSoC4/cyfitter_cfg.c **** 			{0x47u, 0x02u},
 369:Generated_Source\PSoC4/cyfitter_cfg.c **** 			{0x48u, 0x13u},
 370:Generated_Source\PSoC4/cyfitter_cfg.c **** 			{0x49u, 0xFFu},
 371:Generated_Source\PSoC4/cyfitter_cfg.c **** 			{0x4Au, 0xFFu},
 372:Generated_Source\PSoC4/cyfitter_cfg.c **** 			{0x4Bu, 0xFFu},
 373:Generated_Source\PSoC4/cyfitter_cfg.c **** 			{0x4Du, 0xA0u},
 374:Generated_Source\PSoC4/cyfitter_cfg.c **** 			{0x4Fu, 0x04u},
 375:Generated_Source\PSoC4/cyfitter_cfg.c **** 			{0x50u, 0x18u},
 376:Generated_Source\PSoC4/cyfitter_cfg.c **** 			{0x52u, 0x80u},
 377:Generated_Source\PSoC4/cyfitter_cfg.c **** 			{0x54u, 0x05u},
 378:Generated_Source\PSoC4/cyfitter_cfg.c **** 			{0x58u, 0x04u},
 379:Generated_Source\PSoC4/cyfitter_cfg.c **** 			{0x59u, 0x04u},
 380:Generated_Source\PSoC4/cyfitter_cfg.c **** 			{0x5Au, 0x04u},
 381:Generated_Source\PSoC4/cyfitter_cfg.c **** 			{0x5Bu, 0x04u},
 382:Generated_Source\PSoC4/cyfitter_cfg.c **** 			{0x5Cu, 0x03u},
 383:Generated_Source\PSoC4/cyfitter_cfg.c **** 			{0x5Du, 0x33u},
ARM GAS  C:\Users\11800025\AppData\Local\Temp\ccw4Umoi.s 			page 15


 384:Generated_Source\PSoC4/cyfitter_cfg.c **** 			{0x5Fu, 0x01u},
 385:Generated_Source\PSoC4/cyfitter_cfg.c **** 			{0x60u, 0x40u},
 386:Generated_Source\PSoC4/cyfitter_cfg.c **** 			{0x62u, 0xC0u},
 387:Generated_Source\PSoC4/cyfitter_cfg.c **** 			{0x64u, 0x40u},
 388:Generated_Source\PSoC4/cyfitter_cfg.c **** 			{0x65u, 0x40u},
 389:Generated_Source\PSoC4/cyfitter_cfg.c **** 			{0x66u, 0xC0u},
 390:Generated_Source\PSoC4/cyfitter_cfg.c **** 			{0x68u, 0xC0u},
 391:Generated_Source\PSoC4/cyfitter_cfg.c **** 			{0x6Au, 0xC0u},
 392:Generated_Source\PSoC4/cyfitter_cfg.c **** 			{0x6Cu, 0xC0u},
 393:Generated_Source\PSoC4/cyfitter_cfg.c **** 			{0x6Eu, 0xC0u},
 394:Generated_Source\PSoC4/cyfitter_cfg.c **** 			{0x8Au, 0x01u},
 395:Generated_Source\PSoC4/cyfitter_cfg.c **** 			{0x8Fu, 0x01u},
 396:Generated_Source\PSoC4/cyfitter_cfg.c **** 			{0x94u, 0x04u},
 397:Generated_Source\PSoC4/cyfitter_cfg.c **** 			{0x9Au, 0x07u},
 398:Generated_Source\PSoC4/cyfitter_cfg.c **** 			{0xA7u, 0x01u},
 399:Generated_Source\PSoC4/cyfitter_cfg.c **** 			{0xAEu, 0x08u},
 400:Generated_Source\PSoC4/cyfitter_cfg.c **** 			{0xB0u, 0x04u},
 401:Generated_Source\PSoC4/cyfitter_cfg.c **** 			{0xB2u, 0x02u},
 402:Generated_Source\PSoC4/cyfitter_cfg.c **** 			{0xB4u, 0x08u},
 403:Generated_Source\PSoC4/cyfitter_cfg.c **** 			{0xB5u, 0x01u},
 404:Generated_Source\PSoC4/cyfitter_cfg.c **** 			{0xB6u, 0x01u},
 405:Generated_Source\PSoC4/cyfitter_cfg.c **** 			{0xBFu, 0x10u},
 406:Generated_Source\PSoC4/cyfitter_cfg.c **** 			{0xC0u, 0x20u},
 407:Generated_Source\PSoC4/cyfitter_cfg.c **** 			{0xC1u, 0x05u},
 408:Generated_Source\PSoC4/cyfitter_cfg.c **** 			{0xC5u, 0xD1u},
 409:Generated_Source\PSoC4/cyfitter_cfg.c **** 			{0xC6u, 0x02u},
 410:Generated_Source\PSoC4/cyfitter_cfg.c **** 			{0xC8u, 0x07u},
 411:Generated_Source\PSoC4/cyfitter_cfg.c **** 			{0xC9u, 0xFFu},
 412:Generated_Source\PSoC4/cyfitter_cfg.c **** 			{0xCAu, 0xFFu},
 413:Generated_Source\PSoC4/cyfitter_cfg.c **** 			{0xCBu, 0xFFu},
 414:Generated_Source\PSoC4/cyfitter_cfg.c **** 			{0xCDu, 0xA0u},
 415:Generated_Source\PSoC4/cyfitter_cfg.c **** 			{0xCFu, 0x04u},
 416:Generated_Source\PSoC4/cyfitter_cfg.c **** 			{0xD0u, 0x18u},
 417:Generated_Source\PSoC4/cyfitter_cfg.c **** 			{0xD2u, 0x80u},
 418:Generated_Source\PSoC4/cyfitter_cfg.c **** 			{0xD4u, 0x05u},
 419:Generated_Source\PSoC4/cyfitter_cfg.c **** 			{0xD8u, 0x04u},
 420:Generated_Source\PSoC4/cyfitter_cfg.c **** 			{0xD9u, 0x04u},
 421:Generated_Source\PSoC4/cyfitter_cfg.c **** 			{0xDAu, 0x04u},
 422:Generated_Source\PSoC4/cyfitter_cfg.c **** 			{0xDBu, 0x04u},
 423:Generated_Source\PSoC4/cyfitter_cfg.c **** 			{0xDCu, 0x03u},
 424:Generated_Source\PSoC4/cyfitter_cfg.c **** 			{0xDDu, 0x33u},
 425:Generated_Source\PSoC4/cyfitter_cfg.c **** 			{0xDFu, 0x01u},
 426:Generated_Source\PSoC4/cyfitter_cfg.c **** 			{0xE0u, 0x40u},
 427:Generated_Source\PSoC4/cyfitter_cfg.c **** 			{0xE2u, 0xC0u},
 428:Generated_Source\PSoC4/cyfitter_cfg.c **** 			{0xE4u, 0x40u},
 429:Generated_Source\PSoC4/cyfitter_cfg.c **** 			{0xE5u, 0x40u},
 430:Generated_Source\PSoC4/cyfitter_cfg.c **** 			{0xE6u, 0xC0u},
 431:Generated_Source\PSoC4/cyfitter_cfg.c **** 			{0xE8u, 0xC0u},
 432:Generated_Source\PSoC4/cyfitter_cfg.c **** 			{0xEAu, 0xC0u},
 433:Generated_Source\PSoC4/cyfitter_cfg.c **** 			{0xECu, 0xC0u},
 434:Generated_Source\PSoC4/cyfitter_cfg.c **** 			{0xEEu, 0xC0u},
 435:Generated_Source\PSoC4/cyfitter_cfg.c **** 			{0x00u, 0x04u},
 436:Generated_Source\PSoC4/cyfitter_cfg.c **** 			{0x05u, 0x10u},
 437:Generated_Source\PSoC4/cyfitter_cfg.c **** 			{0x09u, 0x02u},
 438:Generated_Source\PSoC4/cyfitter_cfg.c **** 			{0x0Au, 0x10u},
 439:Generated_Source\PSoC4/cyfitter_cfg.c **** 			{0x0Eu, 0x20u},
 440:Generated_Source\PSoC4/cyfitter_cfg.c **** 			{0x0Fu, 0x08u},
ARM GAS  C:\Users\11800025\AppData\Local\Temp\ccw4Umoi.s 			page 16


 441:Generated_Source\PSoC4/cyfitter_cfg.c **** 			{0x10u, 0x20u},
 442:Generated_Source\PSoC4/cyfitter_cfg.c **** 			{0x17u, 0x80u},
 443:Generated_Source\PSoC4/cyfitter_cfg.c **** 			{0x18u, 0x04u},
 444:Generated_Source\PSoC4/cyfitter_cfg.c **** 			{0x19u, 0x40u},
 445:Generated_Source\PSoC4/cyfitter_cfg.c **** 			{0x1Au, 0x10u},
 446:Generated_Source\PSoC4/cyfitter_cfg.c **** 			{0x1Bu, 0x02u},
 447:Generated_Source\PSoC4/cyfitter_cfg.c **** 			{0x1Du, 0xB0u},
 448:Generated_Source\PSoC4/cyfitter_cfg.c **** 			{0x1Eu, 0x60u},
 449:Generated_Source\PSoC4/cyfitter_cfg.c **** 			{0x1Fu, 0x20u},
 450:Generated_Source\PSoC4/cyfitter_cfg.c **** 			{0x22u, 0x04u},
 451:Generated_Source\PSoC4/cyfitter_cfg.c **** 			{0x27u, 0x08u},
 452:Generated_Source\PSoC4/cyfitter_cfg.c **** 			{0x2Fu, 0x20u},
 453:Generated_Source\PSoC4/cyfitter_cfg.c **** 			{0x30u, 0x08u},
 454:Generated_Source\PSoC4/cyfitter_cfg.c **** 			{0x38u, 0x04u},
 455:Generated_Source\PSoC4/cyfitter_cfg.c **** 			{0x3Fu, 0x80u},
 456:Generated_Source\PSoC4/cyfitter_cfg.c **** 			{0x40u, 0x04u},
 457:Generated_Source\PSoC4/cyfitter_cfg.c **** 			{0x45u, 0x20u},
 458:Generated_Source\PSoC4/cyfitter_cfg.c **** 			{0x48u, 0x28u},
 459:Generated_Source\PSoC4/cyfitter_cfg.c **** 			{0x49u, 0x02u},
 460:Generated_Source\PSoC4/cyfitter_cfg.c **** 			{0x4Fu, 0x89u},
 461:Generated_Source\PSoC4/cyfitter_cfg.c **** 			{0x50u, 0x08u},
 462:Generated_Source\PSoC4/cyfitter_cfg.c **** 			{0x57u, 0x40u},
 463:Generated_Source\PSoC4/cyfitter_cfg.c **** 			{0x59u, 0x42u},
 464:Generated_Source\PSoC4/cyfitter_cfg.c **** 			{0x5Au, 0x08u},
 465:Generated_Source\PSoC4/cyfitter_cfg.c **** 			{0x5Eu, 0x40u},
 466:Generated_Source\PSoC4/cyfitter_cfg.c **** 			{0x5Fu, 0x09u},
 467:Generated_Source\PSoC4/cyfitter_cfg.c **** 			{0x71u, 0x02u},
 468:Generated_Source\PSoC4/cyfitter_cfg.c **** 			{0x77u, 0x80u},
 469:Generated_Source\PSoC4/cyfitter_cfg.c **** 			{0x85u, 0x80u},
 470:Generated_Source\PSoC4/cyfitter_cfg.c **** 			{0xC0u, 0x44u},
 471:Generated_Source\PSoC4/cyfitter_cfg.c **** 			{0xC2u, 0x6Cu},
 472:Generated_Source\PSoC4/cyfitter_cfg.c **** 			{0xC4u, 0x84u},
 473:Generated_Source\PSoC4/cyfitter_cfg.c **** 			{0xCAu, 0x40u},
 474:Generated_Source\PSoC4/cyfitter_cfg.c **** 			{0xCCu, 0x02u},
 475:Generated_Source\PSoC4/cyfitter_cfg.c **** 			{0xCEu, 0x12u},
 476:Generated_Source\PSoC4/cyfitter_cfg.c **** 			{0xD0u, 0x24u},
 477:Generated_Source\PSoC4/cyfitter_cfg.c **** 			{0xD2u, 0x14u},
 478:Generated_Source\PSoC4/cyfitter_cfg.c **** 			{0xD6u, 0xDBu},
 479:Generated_Source\PSoC4/cyfitter_cfg.c **** 			{0x40u, 0x60u},
 480:Generated_Source\PSoC4/cyfitter_cfg.c **** 			{0x41u, 0x05u},
 481:Generated_Source\PSoC4/cyfitter_cfg.c **** 			{0x49u, 0xFFu},
 482:Generated_Source\PSoC4/cyfitter_cfg.c **** 			{0x4Au, 0xFFu},
 483:Generated_Source\PSoC4/cyfitter_cfg.c **** 			{0x4Bu, 0xFFu},
 484:Generated_Source\PSoC4/cyfitter_cfg.c **** 			{0x4Du, 0xA0u},
 485:Generated_Source\PSoC4/cyfitter_cfg.c **** 			{0x4Fu, 0x04u},
 486:Generated_Source\PSoC4/cyfitter_cfg.c **** 			{0x50u, 0x18u},
 487:Generated_Source\PSoC4/cyfitter_cfg.c **** 			{0x5Au, 0x04u},
 488:Generated_Source\PSoC4/cyfitter_cfg.c **** 			{0x5Du, 0x01u},
 489:Generated_Source\PSoC4/cyfitter_cfg.c **** 			{0x5Fu, 0x01u},
 490:Generated_Source\PSoC4/cyfitter_cfg.c **** 			{0x60u, 0x40u},
 491:Generated_Source\PSoC4/cyfitter_cfg.c **** 			{0x62u, 0xC0u},
 492:Generated_Source\PSoC4/cyfitter_cfg.c **** 			{0x64u, 0x40u},
 493:Generated_Source\PSoC4/cyfitter_cfg.c **** 			{0x65u, 0x40u},
 494:Generated_Source\PSoC4/cyfitter_cfg.c **** 			{0x66u, 0xC0u},
 495:Generated_Source\PSoC4/cyfitter_cfg.c **** 			{0x68u, 0xC0u},
 496:Generated_Source\PSoC4/cyfitter_cfg.c **** 			{0x6Au, 0xC0u},
 497:Generated_Source\PSoC4/cyfitter_cfg.c **** 			{0x6Cu, 0xC0u},
ARM GAS  C:\Users\11800025\AppData\Local\Temp\ccw4Umoi.s 			page 17


 498:Generated_Source\PSoC4/cyfitter_cfg.c **** 			{0x6Eu, 0xC0u},
 499:Generated_Source\PSoC4/cyfitter_cfg.c **** 			{0x86u, 0x06u},
 500:Generated_Source\PSoC4/cyfitter_cfg.c **** 			{0x8Eu, 0x02u},
 501:Generated_Source\PSoC4/cyfitter_cfg.c **** 			{0x92u, 0x01u},
 502:Generated_Source\PSoC4/cyfitter_cfg.c **** 			{0x9Bu, 0x01u},
 503:Generated_Source\PSoC4/cyfitter_cfg.c **** 			{0xA6u, 0x0Cu},
 504:Generated_Source\PSoC4/cyfitter_cfg.c **** 			{0xADu, 0x01u},
 505:Generated_Source\PSoC4/cyfitter_cfg.c **** 			{0xB0u, 0x08u},
 506:Generated_Source\PSoC4/cyfitter_cfg.c **** 			{0xB2u, 0x04u},
 507:Generated_Source\PSoC4/cyfitter_cfg.c **** 			{0xB4u, 0x01u},
 508:Generated_Source\PSoC4/cyfitter_cfg.c **** 			{0xB6u, 0x02u},
 509:Generated_Source\PSoC4/cyfitter_cfg.c **** 			{0xB7u, 0x01u},
 510:Generated_Source\PSoC4/cyfitter_cfg.c **** 			{0xBEu, 0x40u},
 511:Generated_Source\PSoC4/cyfitter_cfg.c **** 			{0xC0u, 0x20u},
 512:Generated_Source\PSoC4/cyfitter_cfg.c **** 			{0xC1u, 0x05u},
 513:Generated_Source\PSoC4/cyfitter_cfg.c **** 			{0xC5u, 0xD1u},
 514:Generated_Source\PSoC4/cyfitter_cfg.c **** 			{0xC7u, 0x20u},
 515:Generated_Source\PSoC4/cyfitter_cfg.c **** 			{0xC8u, 0x23u},
 516:Generated_Source\PSoC4/cyfitter_cfg.c **** 			{0xC9u, 0xFFu},
 517:Generated_Source\PSoC4/cyfitter_cfg.c **** 			{0xCAu, 0xFFu},
 518:Generated_Source\PSoC4/cyfitter_cfg.c **** 			{0xCBu, 0xFFu},
 519:Generated_Source\PSoC4/cyfitter_cfg.c **** 			{0xCDu, 0xAFu},
 520:Generated_Source\PSoC4/cyfitter_cfg.c **** 			{0xCEu, 0x0Fu},
 521:Generated_Source\PSoC4/cyfitter_cfg.c **** 			{0xCFu, 0x04u},
 522:Generated_Source\PSoC4/cyfitter_cfg.c **** 			{0xD0u, 0x18u},
 523:Generated_Source\PSoC4/cyfitter_cfg.c **** 			{0xD2u, 0x80u},
 524:Generated_Source\PSoC4/cyfitter_cfg.c **** 			{0xD4u, 0x05u},
 525:Generated_Source\PSoC4/cyfitter_cfg.c **** 			{0xD8u, 0x04u},
 526:Generated_Source\PSoC4/cyfitter_cfg.c **** 			{0xD9u, 0x04u},
 527:Generated_Source\PSoC4/cyfitter_cfg.c **** 			{0xDAu, 0x04u},
 528:Generated_Source\PSoC4/cyfitter_cfg.c **** 			{0xDBu, 0x04u},
 529:Generated_Source\PSoC4/cyfitter_cfg.c **** 			{0xDCu, 0x11u},
 530:Generated_Source\PSoC4/cyfitter_cfg.c **** 			{0xDDu, 0x11u},
 531:Generated_Source\PSoC4/cyfitter_cfg.c **** 			{0xDFu, 0x01u},
 532:Generated_Source\PSoC4/cyfitter_cfg.c **** 			{0xE0u, 0x40u},
 533:Generated_Source\PSoC4/cyfitter_cfg.c **** 			{0xE2u, 0xC0u},
 534:Generated_Source\PSoC4/cyfitter_cfg.c **** 			{0xE4u, 0x40u},
 535:Generated_Source\PSoC4/cyfitter_cfg.c **** 			{0xE5u, 0x40u},
 536:Generated_Source\PSoC4/cyfitter_cfg.c **** 			{0xE6u, 0xC0u},
 537:Generated_Source\PSoC4/cyfitter_cfg.c **** 			{0xE8u, 0xC0u},
 538:Generated_Source\PSoC4/cyfitter_cfg.c **** 			{0xEAu, 0xC0u},
 539:Generated_Source\PSoC4/cyfitter_cfg.c **** 			{0xECu, 0xC0u},
 540:Generated_Source\PSoC4/cyfitter_cfg.c **** 			{0xEEu, 0xC0u},
 541:Generated_Source\PSoC4/cyfitter_cfg.c **** 			{0x00u, 0x04u},
 542:Generated_Source\PSoC4/cyfitter_cfg.c **** 			{0x02u, 0x02u},
 543:Generated_Source\PSoC4/cyfitter_cfg.c **** 			{0x09u, 0x02u},
 544:Generated_Source\PSoC4/cyfitter_cfg.c **** 			{0x10u, 0x20u},
 545:Generated_Source\PSoC4/cyfitter_cfg.c **** 			{0x18u, 0x04u},
 546:Generated_Source\PSoC4/cyfitter_cfg.c **** 			{0x1Bu, 0x59u},
 547:Generated_Source\PSoC4/cyfitter_cfg.c **** 			{0x22u, 0x40u},
 548:Generated_Source\PSoC4/cyfitter_cfg.c **** 			{0x2Bu, 0x01u},
 549:Generated_Source\PSoC4/cyfitter_cfg.c **** 			{0x30u, 0x20u},
 550:Generated_Source\PSoC4/cyfitter_cfg.c **** 			{0x40u, 0x04u},
 551:Generated_Source\PSoC4/cyfitter_cfg.c **** 			{0x48u, 0x20u},
 552:Generated_Source\PSoC4/cyfitter_cfg.c **** 			{0x49u, 0x01u},
 553:Generated_Source\PSoC4/cyfitter_cfg.c **** 			{0x4Au, 0x02u},
 554:Generated_Source\PSoC4/cyfitter_cfg.c **** 			{0x4Eu, 0x02u},
ARM GAS  C:\Users\11800025\AppData\Local\Temp\ccw4Umoi.s 			page 18


 555:Generated_Source\PSoC4/cyfitter_cfg.c **** 			{0x4Fu, 0x20u},
 556:Generated_Source\PSoC4/cyfitter_cfg.c **** 			{0x52u, 0x02u},
 557:Generated_Source\PSoC4/cyfitter_cfg.c **** 			{0x59u, 0x01u},
 558:Generated_Source\PSoC4/cyfitter_cfg.c **** 			{0x5Au, 0x80u},
 559:Generated_Source\PSoC4/cyfitter_cfg.c **** 			{0x5Bu, 0x08u},
 560:Generated_Source\PSoC4/cyfitter_cfg.c **** 			{0x71u, 0x02u},
 561:Generated_Source\PSoC4/cyfitter_cfg.c **** 			{0x83u, 0x48u},
 562:Generated_Source\PSoC4/cyfitter_cfg.c **** 			{0x8Bu, 0x08u},
 563:Generated_Source\PSoC4/cyfitter_cfg.c **** 			{0xB7u, 0x02u},
 564:Generated_Source\PSoC4/cyfitter_cfg.c **** 			{0xC0u, 0x05u},
 565:Generated_Source\PSoC4/cyfitter_cfg.c **** 			{0xC2u, 0x08u},
 566:Generated_Source\PSoC4/cyfitter_cfg.c **** 			{0xC4u, 0x04u},
 567:Generated_Source\PSoC4/cyfitter_cfg.c **** 			{0xCAu, 0x08u},
 568:Generated_Source\PSoC4/cyfitter_cfg.c **** 			{0xCCu, 0x04u},
 569:Generated_Source\PSoC4/cyfitter_cfg.c **** 			{0xD0u, 0x04u},
 570:Generated_Source\PSoC4/cyfitter_cfg.c **** 			{0xD2u, 0x38u},
 571:Generated_Source\PSoC4/cyfitter_cfg.c **** 			{0xD6u, 0x0Bu},
 572:Generated_Source\PSoC4/cyfitter_cfg.c **** 			{0xEEu, 0x40u},
 573:Generated_Source\PSoC4/cyfitter_cfg.c **** 			{0x87u, 0x10u},
 574:Generated_Source\PSoC4/cyfitter_cfg.c **** 			{0xE6u, 0x40u},
 575:Generated_Source\PSoC4/cyfitter_cfg.c **** 			{0x54u, 0x02u},
 576:Generated_Source\PSoC4/cyfitter_cfg.c **** 			{0x67u, 0x20u},
 577:Generated_Source\PSoC4/cyfitter_cfg.c **** 			{0x93u, 0x20u},
 578:Generated_Source\PSoC4/cyfitter_cfg.c **** 			{0xA0u, 0x02u},
 579:Generated_Source\PSoC4/cyfitter_cfg.c **** 			{0xB4u, 0x02u},
 580:Generated_Source\PSoC4/cyfitter_cfg.c **** 			{0xD6u, 0x20u},
 581:Generated_Source\PSoC4/cyfitter_cfg.c **** 			{0xD8u, 0x80u},
 582:Generated_Source\PSoC4/cyfitter_cfg.c **** 			{0x3Du, 0x02u},
 583:Generated_Source\PSoC4/cyfitter_cfg.c **** 			{0x40u, 0x10u},
 584:Generated_Source\PSoC4/cyfitter_cfg.c **** 			{0x44u, 0x01u},
 585:Generated_Source\PSoC4/cyfitter_cfg.c **** 			{0xCEu, 0x01u},
 586:Generated_Source\PSoC4/cyfitter_cfg.c **** 			{0xD0u, 0x06u},
 587:Generated_Source\PSoC4/cyfitter_cfg.c **** 			{0x04u, 0x10u},
 588:Generated_Source\PSoC4/cyfitter_cfg.c **** 			{0x09u, 0x01u},
 589:Generated_Source\PSoC4/cyfitter_cfg.c **** 			{0x0Cu, 0x01u},
 590:Generated_Source\PSoC4/cyfitter_cfg.c **** 			{0x5Cu, 0x80u},
 591:Generated_Source\PSoC4/cyfitter_cfg.c **** 			{0x88u, 0x80u},
 592:Generated_Source\PSoC4/cyfitter_cfg.c **** 			{0x94u, 0x10u},
 593:Generated_Source\PSoC4/cyfitter_cfg.c **** 			{0x9Cu, 0x01u},
 594:Generated_Source\PSoC4/cyfitter_cfg.c **** 			{0xA5u, 0x01u},
 595:Generated_Source\PSoC4/cyfitter_cfg.c **** 			{0xC0u, 0x01u},
 596:Generated_Source\PSoC4/cyfitter_cfg.c **** 			{0xC2u, 0x0Cu},
 597:Generated_Source\PSoC4/cyfitter_cfg.c **** 			{0xD6u, 0x04u},
 598:Generated_Source\PSoC4/cyfitter_cfg.c **** 			{0xE0u, 0x04u},
 599:Generated_Source\PSoC4/cyfitter_cfg.c **** 			{0x01u, 0x0Au},
 600:Generated_Source\PSoC4/cyfitter_cfg.c **** 			{0x10u, 0x0Au},
 601:Generated_Source\PSoC4/cyfitter_cfg.c **** 		};
 602:Generated_Source\PSoC4/cyfitter_cfg.c **** 
 603:Generated_Source\PSoC4/cyfitter_cfg.c **** 
 604:Generated_Source\PSoC4/cyfitter_cfg.c **** 
 605:Generated_Source\PSoC4/cyfitter_cfg.c **** 		CYPACKED typedef struct {
 606:Generated_Source\PSoC4/cyfitter_cfg.c **** 			void CYFAR *address;
 607:Generated_Source\PSoC4/cyfitter_cfg.c **** 			uint16 size;
 608:Generated_Source\PSoC4/cyfitter_cfg.c **** 		} CYPACKED_ATTR cfg_memset_t;
 609:Generated_Source\PSoC4/cyfitter_cfg.c **** 
 610:Generated_Source\PSoC4/cyfitter_cfg.c **** 		static const cfg_memset_t CYCODE cfg_memset_list[] = {
 611:Generated_Source\PSoC4/cyfitter_cfg.c **** 			/* address, size */
ARM GAS  C:\Users\11800025\AppData\Local\Temp\ccw4Umoi.s 			page 19


 612:Generated_Source\PSoC4/cyfitter_cfg.c **** 			{(void CYFAR *)(CYDEV_UDB_P0_U0_BASE), 1024u},
 613:Generated_Source\PSoC4/cyfitter_cfg.c **** 			{(void CYFAR *)(CYDEV_UDB_DSI0_BASE), 1024u},
 614:Generated_Source\PSoC4/cyfitter_cfg.c **** 		};
 615:Generated_Source\PSoC4/cyfitter_cfg.c **** 
 616:Generated_Source\PSoC4/cyfitter_cfg.c **** 		uint8 CYDATA i;
 617:Generated_Source\PSoC4/cyfitter_cfg.c **** 
 618:Generated_Source\PSoC4/cyfitter_cfg.c **** 		/* Zero out critical memory blocks before beginning configuration */
 619:Generated_Source\PSoC4/cyfitter_cfg.c **** 		for (i = 0u; i < (sizeof(cfg_memset_list)/sizeof(cfg_memset_list[0])); i++)
 376              		.loc 1 619 0
 377 0152 0024     		movs	r4, #0
 378 0154 0FE0     		b	.L14
 379              	.LVL24:
 380              	.L15:
 381              	.LBB4:
 620:Generated_Source\PSoC4/cyfitter_cfg.c **** 		{
 621:Generated_Source\PSoC4/cyfitter_cfg.c **** 			const cfg_memset_t CYCODE * CYDATA ms = &cfg_memset_list[i];
 622:Generated_Source\PSoC4/cyfitter_cfg.c **** 			CYMEMZERO(ms->address, (size_t)(uint32)(ms->size));
 382              		.loc 1 622 0 discriminator 3
 383 0156 3248     		ldr	r0, .L16+4
 384 0158 6200     		lsls	r2, r4, #1
 385 015a 1319     		adds	r3, r2, r4
 386 015c 5900     		lsls	r1, r3, #1
 387 015e 0B00     		movs	r3, r1
 388 0160 4118     		adds	r1, r0, r1
 389 0162 8988     		ldrh	r1, [r1, #4]
 390 0164 1A5A     		ldrh	r2, [r3, r0]
 391 0166 C318     		adds	r3, r0, r3
 392 0168 5888     		ldrh	r0, [r3, #2]
 393 016a 0004     		lsls	r0, r0, #16
 394 016c 1043     		orrs	r0, r2
 395 016e FFF7FEFF 		bl	CYMEMZERO
 396              	.LVL25:
 397              	.LBE4:
 619:Generated_Source\PSoC4/cyfitter_cfg.c **** 		{
 398              		.loc 1 619 0 discriminator 3
 399 0172 0134     		adds	r4, r4, #1
 400              	.LVL26:
 401 0174 E4B2     		uxtb	r4, r4
 402              	.LVL27:
 403              	.L14:
 619:Generated_Source\PSoC4/cyfitter_cfg.c **** 		{
 404              		.loc 1 619 0 is_stmt 0 discriminator 1
 405 0176 012C     		cmp	r4, #1
 406 0178 EDD9     		bls	.L15
 623:Generated_Source\PSoC4/cyfitter_cfg.c **** 		}
 624:Generated_Source\PSoC4/cyfitter_cfg.c **** 
 625:Generated_Source\PSoC4/cyfitter_cfg.c **** 		cfg_write_bytes32(cy_cfg_addr_table, cy_cfg_data_table);
 407              		.loc 1 625 0 is_stmt 1
 408 017a 2949     		ldr	r1, .L16+4
 409 017c 0C31     		adds	r1, r1, #12
 410 017e 2948     		ldr	r0, .L16+8
 411 0180 0430     		adds	r0, r0, #4
 412 0182 FFF7FEFF 		bl	cfg_write_bytes32
 413              	.LVL28:
 626:Generated_Source\PSoC4/cyfitter_cfg.c **** 
 627:Generated_Source\PSoC4/cyfitter_cfg.c **** 		/* HSIOM Starting address: CYDEV_HSIOM_BASE */
 628:Generated_Source\PSoC4/cyfitter_cfg.c **** 		CY_SET_REG32((void *)(CYDEV_HSIOM_BASE), 0xEE990000u);
ARM GAS  C:\Users\11800025\AppData\Local\Temp\ccw4Umoi.s 			page 20


 414              		.loc 1 628 0
 415 0186 284A     		ldr	r2, .L16+12
 416 0188 284B     		ldr	r3, .L16+16
 417 018a 1A60     		str	r2, [r3]
 629:Generated_Source\PSoC4/cyfitter_cfg.c **** 		CY_SET_REG32((void *)(CYREG_HSIOM_PORT_SEL1), 0x00033000u);
 418              		.loc 1 629 0
 419 018c CC22     		movs	r2, #204
 420 018e 9202     		lsls	r2, r2, #10
 421 0190 274B     		ldr	r3, .L16+20
 422 0192 1A60     		str	r2, [r3]
 630:Generated_Source\PSoC4/cyfitter_cfg.c **** 		CY_SET_REG32((void *)(CYREG_HSIOM_PORT_SEL3), 0x00000333u);
 423              		.loc 1 630 0
 424 0194 274A     		ldr	r2, .L16+24
 425 0196 284B     		ldr	r3, .L16+28
 426 0198 1A60     		str	r2, [r3]
 631:Generated_Source\PSoC4/cyfitter_cfg.c **** 
 632:Generated_Source\PSoC4/cyfitter_cfg.c **** 		/* UDB_PA_0 Starting address: CYDEV_UDB_PA0_BASE */
 633:Generated_Source\PSoC4/cyfitter_cfg.c **** 		CY_SET_REG32((void *)(CYDEV_UDB_PA0_BASE), 0x00990000u);
 427              		.loc 1 633 0
 428 019a 9923     		movs	r3, #153
 429 019c 1B04     		lsls	r3, r3, #16
 430 019e 274A     		ldr	r2, .L16+32
 431 01a0 1360     		str	r3, [r2]
 634:Generated_Source\PSoC4/cyfitter_cfg.c **** 
 635:Generated_Source\PSoC4/cyfitter_cfg.c **** 		/* UDB_PA_1 Starting address: CYDEV_UDB_PA1_BASE */
 636:Generated_Source\PSoC4/cyfitter_cfg.c **** 		CY_SET_REG32((void *)(CYDEV_UDB_PA1_BASE), 0x00990000u);
 432              		.loc 1 636 0
 433 01a2 274A     		ldr	r2, .L16+36
 434 01a4 1360     		str	r3, [r2]
 637:Generated_Source\PSoC4/cyfitter_cfg.c **** 		CY_SET_REG32((void *)(CYREG_UDB_PA1_CFG8), 0x03C00000u);
 435              		.loc 1 637 0
 436 01a6 F021     		movs	r1, #240
 437 01a8 8904     		lsls	r1, r1, #18
 438 01aa 264A     		ldr	r2, .L16+40
 439 01ac 1160     		str	r1, [r2]
 638:Generated_Source\PSoC4/cyfitter_cfg.c **** 
 639:Generated_Source\PSoC4/cyfitter_cfg.c **** 		/* UDB_PA_3 Starting address: CYDEV_UDB_PA3_BASE */
 640:Generated_Source\PSoC4/cyfitter_cfg.c **** 		CY_SET_REG32((void *)(CYDEV_UDB_PA3_BASE), 0x00990000u);
 440              		.loc 1 640 0
 441 01ae 264A     		ldr	r2, .L16+44
 442 01b0 1360     		str	r3, [r2]
 641:Generated_Source\PSoC4/cyfitter_cfg.c **** 		CY_SET_REG32((void *)(CYREG_UDB_PA3_CFG8), 0x003F0000u);
 443              		.loc 1 641 0
 444 01b2 FC22     		movs	r2, #252
 445 01b4 9203     		lsls	r2, r2, #14
 446 01b6 254B     		ldr	r3, .L16+48
 447 01b8 1A60     		str	r2, [r3]
 642:Generated_Source\PSoC4/cyfitter_cfg.c **** 
 643:Generated_Source\PSoC4/cyfitter_cfg.c **** 		/* TCPWM_CNT0 Starting address: CYDEV_TCPWM_CNT0_TR_CTRL0 */
 644:Generated_Source\PSoC4/cyfitter_cfg.c **** 		CY_SET_REG32((void *)(CYREG_TCPWM_CNT0_TR_CTRL0), 0x00077717u);
 448              		.loc 1 644 0
 449 01ba 254A     		ldr	r2, .L16+52
 450 01bc 254B     		ldr	r3, .L16+56
 451 01be 1A60     		str	r2, [r3]
 645:Generated_Source\PSoC4/cyfitter_cfg.c **** 
 646:Generated_Source\PSoC4/cyfitter_cfg.c **** 		/* TCPWM_CNT1 Starting address: CYDEV_TCPWM_CNT1_TR_CTRL0 */
 647:Generated_Source\PSoC4/cyfitter_cfg.c **** 		CY_SET_REG32((void *)(CYREG_TCPWM_CNT1_TR_CTRL0), 0x00055515u);
ARM GAS  C:\Users\11800025\AppData\Local\Temp\ccw4Umoi.s 			page 21


 452              		.loc 1 647 0
 453 01c0 254A     		ldr	r2, .L16+60
 454 01c2 264B     		ldr	r3, .L16+64
 455 01c4 1A60     		str	r2, [r3]
 648:Generated_Source\PSoC4/cyfitter_cfg.c **** 
 649:Generated_Source\PSoC4/cyfitter_cfg.c **** 		/* TCPWM_CNT2 Starting address: CYDEV_TCPWM_CNT2_TR_CTRL0 */
 650:Generated_Source\PSoC4/cyfitter_cfg.c **** 		CY_SET_REG32((void *)(CYREG_TCPWM_CNT2_TR_CTRL0), 0x00088818u);
 456              		.loc 1 650 0
 457 01c6 264A     		ldr	r2, .L16+68
 458 01c8 264B     		ldr	r3, .L16+72
 459 01ca 1A60     		str	r2, [r3]
 651:Generated_Source\PSoC4/cyfitter_cfg.c **** 
 652:Generated_Source\PSoC4/cyfitter_cfg.c **** 		/* Enable UDB array and digital routing */
 653:Generated_Source\PSoC4/cyfitter_cfg.c **** 		CY_SET_XTND_REG8((void *)CYREG_UDB_UDBIF_WAIT_CFG, (uint8)((CY_GET_XTND_REG8((void *)CYREG_UDB_UD
 460              		.loc 1 653 0
 461 01cc 2649     		ldr	r1, .L16+76
 462 01ce 0B78     		ldrb	r3, [r1]
 463 01d0 3C22     		movs	r2, #60
 464 01d2 9343     		bics	r3, r2
 465 01d4 1422     		movs	r2, #20
 466 01d6 1343     		orrs	r3, r2
 467 01d8 DBB2     		uxtb	r3, r3
 468 01da 0B70     		strb	r3, [r1]
 654:Generated_Source\PSoC4/cyfitter_cfg.c **** 		CY_SET_XTND_REG8((void *)CYREG_UDB_UDBIF_BANK_CTL, (uint8)(CY_GET_XTND_REG8((void *)CYREG_UDB_UDB
 469              		.loc 1 654 0
 470 01dc 234A     		ldr	r2, .L16+80
 471 01de 1178     		ldrb	r1, [r2]
 472 01e0 1623     		movs	r3, #22
 473 01e2 0B43     		orrs	r3, r1
 474 01e4 DBB2     		uxtb	r3, r3
 475 01e6 1370     		strb	r3, [r2]
 476              	.LBE3:
 655:Generated_Source\PSoC4/cyfitter_cfg.c **** 	}
 656:Generated_Source\PSoC4/cyfitter_cfg.c **** 
 657:Generated_Source\PSoC4/cyfitter_cfg.c **** 	/* Perform second pass device configuration. These items must be configured in specific order afte
 658:Generated_Source\PSoC4/cyfitter_cfg.c **** 	/* IOPINS0_0 Starting address: CYDEV_GPIO_PRT0_BASE */
 659:Generated_Source\PSoC4/cyfitter_cfg.c **** 	CY_SET_REG32((void *)(CYDEV_GPIO_PRT0_BASE), 0x00000020u);
 477              		.loc 1 659 0
 478 01e8 2023     		movs	r3, #32
 479 01ea 214A     		ldr	r2, .L16+84
 480 01ec 1360     		str	r3, [r2]
 660:Generated_Source\PSoC4/cyfitter_cfg.c **** 	CY_SET_REG32((void *)(CYREG_GPIO_PRT0_PC), 0x00DB1000u);
 481              		.loc 1 660 0
 482 01ee 2149     		ldr	r1, .L16+88
 483 01f0 214A     		ldr	r2, .L16+92
 484 01f2 1160     		str	r1, [r2]
 661:Generated_Source\PSoC4/cyfitter_cfg.c **** 	CY_SET_REG32((void *)(CYREG_GPIO_PRT0_PC2), 0x00000020u);
 485              		.loc 1 661 0
 486 01f4 214A     		ldr	r2, .L16+96
 487 01f6 1360     		str	r3, [r2]
 662:Generated_Source\PSoC4/cyfitter_cfg.c **** 
 663:Generated_Source\PSoC4/cyfitter_cfg.c **** 	/* IOPINS0_1 Starting address: CYDEV_GPIO_PRT1_BASE */
 664:Generated_Source\PSoC4/cyfitter_cfg.c **** 	CY_SET_REG32((void *)(CYDEV_GPIO_PRT1_BASE), 0x000000FFu);
 488              		.loc 1 664 0
 489 01f8 FF22     		movs	r2, #255
 490 01fa 214B     		ldr	r3, .L16+100
 491 01fc 1A60     		str	r2, [r3]
ARM GAS  C:\Users\11800025\AppData\Local\Temp\ccw4Umoi.s 			page 22


 665:Generated_Source\PSoC4/cyfitter_cfg.c **** 	CY_SET_REG32((void *)(CYREG_GPIO_PRT1_PC), 0x00496C92u);
 492              		.loc 1 665 0
 493 01fe 214A     		ldr	r2, .L16+104
 494 0200 214B     		ldr	r3, .L16+108
 495 0202 1A60     		str	r2, [r3]
 666:Generated_Source\PSoC4/cyfitter_cfg.c **** 
 667:Generated_Source\PSoC4/cyfitter_cfg.c **** 	/* IOPINS0_3 Starting address: CYDEV_GPIO_PRT3_BASE */
 668:Generated_Source\PSoC4/cyfitter_cfg.c **** 	CY_SET_REG32((void *)(CYDEV_GPIO_PRT3_BASE), 0x00000007u);
 496              		.loc 1 668 0
 497 0204 0722     		movs	r2, #7
 498 0206 214B     		ldr	r3, .L16+112
 499 0208 1A60     		str	r2, [r3]
 669:Generated_Source\PSoC4/cyfitter_cfg.c **** 	CY_SET_REG32((void *)(CYREG_GPIO_PRT3_PC), 0x000092B2u);
 500              		.loc 1 669 0
 501 020a 214A     		ldr	r2, .L16+116
 502 020c 214B     		ldr	r3, .L16+120
 503 020e 1A60     		str	r2, [r3]
 670:Generated_Source\PSoC4/cyfitter_cfg.c **** 
 671:Generated_Source\PSoC4/cyfitter_cfg.c **** 
 672:Generated_Source\PSoC4/cyfitter_cfg.c **** 	/* Setup clocks based on selections from Clock DWR */
 673:Generated_Source\PSoC4/cyfitter_cfg.c **** 	ClockSetup();
 504              		.loc 1 673 0
 505 0210 FFF7F6FE 		bl	ClockSetup
 506              	.LVL29:
 674:Generated_Source\PSoC4/cyfitter_cfg.c **** 
 675:Generated_Source\PSoC4/cyfitter_cfg.c **** 	/* Perform basic analog initialization to defaults */
 676:Generated_Source\PSoC4/cyfitter_cfg.c **** 	AnalogSetDefault();
 507              		.loc 1 676 0
 508 0214 FFF7FEFF 		bl	AnalogSetDefault
 509              	.LVL30:
 677:Generated_Source\PSoC4/cyfitter_cfg.c **** 
 678:Generated_Source\PSoC4/cyfitter_cfg.c **** }
 510              		.loc 1 678 0
 511              		@ sp needed
 512              	.LVL31:
 513 0218 10BD     		pop	{r4, pc}
 514              	.L17:
 515 021a C046     		.align	2
 516              	.L16:
 517 021c 6CF02E40 		.word	1076818028
 518 0220 00000000 		.word	.LANCHOR0
 519 0224 00020000 		.word	.LANCHOR1
 520 0228 000099EE 		.word	-291962880
 521 022c 00000240 		.word	1073872896
 522 0230 00010240 		.word	1073873152
 523 0234 33030000 		.word	819
 524 0238 00030240 		.word	1073873664
 525 023c 00500F40 		.word	1074745344
 526 0240 10500F40 		.word	1074745360
 527 0244 18500F40 		.word	1074745368
 528 0248 30500F40 		.word	1074745392
 529 024c 38500F40 		.word	1074745400
 530 0250 17770700 		.word	489239
 531 0254 20012040 		.word	1075839264
 532 0258 15550500 		.word	349461
 533 025c 60012040 		.word	1075839328
 534 0260 18880800 		.word	559128
ARM GAS  C:\Users\11800025\AppData\Local\Temp\ccw4Umoi.s 			page 23


 535 0264 A0012040 		.word	1075839392
 536 0268 01700F40 		.word	1074753537
 537 026c 00700F40 		.word	1074753536
 538 0270 00000440 		.word	1074003968
 539 0274 0010DB00 		.word	14356480
 540 0278 08000440 		.word	1074003976
 541 027c 18000440 		.word	1074003992
 542 0280 00010440 		.word	1074004224
 543 0284 926C4900 		.word	4811922
 544 0288 08010440 		.word	1074004232
 545 028c 00030440 		.word	1074004736
 546 0290 B2920000 		.word	37554
 547 0294 08030440 		.word	1074004744
 548              		.cfi_endproc
 549              	.LFE8:
 550              		.size	cyfitter_cfg, .-cyfitter_cfg
 551              		.section	.rodata
 552              		.align	2
 553              		.set	.LANCHOR0,. + 0
 554              		.set	.LANCHOR1,. + 512
 555              		.type	cfg_memset_list.4907, %object
 556              		.size	cfg_memset_list.4907, 12
 557              	cfg_memset_list.4907:
 558 0000 00300F40 		.word	1074737152
 559 0004 0004     		.short	1024
 560 0006 00400F40 		.4byte	1074741248
 561 000a 0004     		.short	1024
 562              		.type	cy_cfg_data_table.4902, %object
 563              		.size	cy_cfg_data_table.4902, 502
 564              	cy_cfg_data_table.4902:
 565 000c 80       		.byte	-128
 566 000d 0D       		.byte	13
 567 000e 81       		.byte	-127
 568 000f 0D       		.byte	13
 569 0010 83       		.byte	-125
 570 0011 0D       		.byte	13
 571 0012 06       		.byte	6
 572 0013 01       		.byte	1
 573 0014 07       		.byte	7
 574 0015 01       		.byte	1
 575 0016 12       		.byte	18
 576 0017 08       		.byte	8
 577 0018 14       		.byte	20
 578 0019 04       		.byte	4
 579 001a 17       		.byte	23
 580 001b 01       		.byte	1
 581 001c 26       		.byte	38
 582 001d 07       		.byte	7
 583 001e 30       		.byte	48
 584 001f 01       		.byte	1
 585 0020 32       		.byte	50
 586 0021 02       		.byte	2
 587 0022 33       		.byte	51
 588 0023 01       		.byte	1
 589 0024 34       		.byte	52
 590 0025 08       		.byte	8
 591 0026 36       		.byte	54
ARM GAS  C:\Users\11800025\AppData\Local\Temp\ccw4Umoi.s 			page 24


 592 0027 04       		.byte	4
 593 0028 3F       		.byte	63
 594 0029 04       		.byte	4
 595 002a 40       		.byte	64
 596 002b 20       		.byte	32
 597 002c 41       		.byte	65
 598 002d 06       		.byte	6
 599 002e 45       		.byte	69
 600 002f D1       		.byte	-47
 601 0030 47       		.byte	71
 602 0031 02       		.byte	2
 603 0032 48       		.byte	72
 604 0033 13       		.byte	19
 605 0034 49       		.byte	73
 606 0035 FF       		.byte	-1
 607 0036 4A       		.byte	74
 608 0037 FF       		.byte	-1
 609 0038 4B       		.byte	75
 610 0039 FF       		.byte	-1
 611 003a 4D       		.byte	77
 612 003b A0       		.byte	-96
 613 003c 4F       		.byte	79
 614 003d 04       		.byte	4
 615 003e 50       		.byte	80
 616 003f 18       		.byte	24
 617 0040 52       		.byte	82
 618 0041 80       		.byte	-128
 619 0042 54       		.byte	84
 620 0043 05       		.byte	5
 621 0044 58       		.byte	88
 622 0045 04       		.byte	4
 623 0046 59       		.byte	89
 624 0047 04       		.byte	4
 625 0048 5A       		.byte	90
 626 0049 04       		.byte	4
 627 004a 5B       		.byte	91
 628 004b 04       		.byte	4
 629 004c 5C       		.byte	92
 630 004d 03       		.byte	3
 631 004e 5D       		.byte	93
 632 004f 33       		.byte	51
 633 0050 5F       		.byte	95
 634 0051 01       		.byte	1
 635 0052 60       		.byte	96
 636 0053 40       		.byte	64
 637 0054 62       		.byte	98
 638 0055 C0       		.byte	-64
 639 0056 64       		.byte	100
 640 0057 40       		.byte	64
 641 0058 65       		.byte	101
 642 0059 40       		.byte	64
 643 005a 66       		.byte	102
 644 005b C0       		.byte	-64
 645 005c 68       		.byte	104
 646 005d C0       		.byte	-64
 647 005e 6A       		.byte	106
 648 005f C0       		.byte	-64
ARM GAS  C:\Users\11800025\AppData\Local\Temp\ccw4Umoi.s 			page 25


 649 0060 6C       		.byte	108
 650 0061 C0       		.byte	-64
 651 0062 6E       		.byte	110
 652 0063 C0       		.byte	-64
 653 0064 8A       		.byte	-118
 654 0065 01       		.byte	1
 655 0066 8F       		.byte	-113
 656 0067 01       		.byte	1
 657 0068 94       		.byte	-108
 658 0069 04       		.byte	4
 659 006a 9A       		.byte	-102
 660 006b 07       		.byte	7
 661 006c A7       		.byte	-89
 662 006d 01       		.byte	1
 663 006e AE       		.byte	-82
 664 006f 08       		.byte	8
 665 0070 B0       		.byte	-80
 666 0071 04       		.byte	4
 667 0072 B2       		.byte	-78
 668 0073 02       		.byte	2
 669 0074 B4       		.byte	-76
 670 0075 08       		.byte	8
 671 0076 B5       		.byte	-75
 672 0077 01       		.byte	1
 673 0078 B6       		.byte	-74
 674 0079 01       		.byte	1
 675 007a BF       		.byte	-65
 676 007b 10       		.byte	16
 677 007c C0       		.byte	-64
 678 007d 20       		.byte	32
 679 007e C1       		.byte	-63
 680 007f 05       		.byte	5
 681 0080 C5       		.byte	-59
 682 0081 D1       		.byte	-47
 683 0082 C6       		.byte	-58
 684 0083 02       		.byte	2
 685 0084 C8       		.byte	-56
 686 0085 07       		.byte	7
 687 0086 C9       		.byte	-55
 688 0087 FF       		.byte	-1
 689 0088 CA       		.byte	-54
 690 0089 FF       		.byte	-1
 691 008a CB       		.byte	-53
 692 008b FF       		.byte	-1
 693 008c CD       		.byte	-51
 694 008d A0       		.byte	-96
 695 008e CF       		.byte	-49
 696 008f 04       		.byte	4
 697 0090 D0       		.byte	-48
 698 0091 18       		.byte	24
 699 0092 D2       		.byte	-46
 700 0093 80       		.byte	-128
 701 0094 D4       		.byte	-44
 702 0095 05       		.byte	5
 703 0096 D8       		.byte	-40
 704 0097 04       		.byte	4
 705 0098 D9       		.byte	-39
ARM GAS  C:\Users\11800025\AppData\Local\Temp\ccw4Umoi.s 			page 26


 706 0099 04       		.byte	4
 707 009a DA       		.byte	-38
 708 009b 04       		.byte	4
 709 009c DB       		.byte	-37
 710 009d 04       		.byte	4
 711 009e DC       		.byte	-36
 712 009f 03       		.byte	3
 713 00a0 DD       		.byte	-35
 714 00a1 33       		.byte	51
 715 00a2 DF       		.byte	-33
 716 00a3 01       		.byte	1
 717 00a4 E0       		.byte	-32
 718 00a5 40       		.byte	64
 719 00a6 E2       		.byte	-30
 720 00a7 C0       		.byte	-64
 721 00a8 E4       		.byte	-28
 722 00a9 40       		.byte	64
 723 00aa E5       		.byte	-27
 724 00ab 40       		.byte	64
 725 00ac E6       		.byte	-26
 726 00ad C0       		.byte	-64
 727 00ae E8       		.byte	-24
 728 00af C0       		.byte	-64
 729 00b0 EA       		.byte	-22
 730 00b1 C0       		.byte	-64
 731 00b2 EC       		.byte	-20
 732 00b3 C0       		.byte	-64
 733 00b4 EE       		.byte	-18
 734 00b5 C0       		.byte	-64
 735 00b6 00       		.byte	0
 736 00b7 04       		.byte	4
 737 00b8 05       		.byte	5
 738 00b9 10       		.byte	16
 739 00ba 09       		.byte	9
 740 00bb 02       		.byte	2
 741 00bc 0A       		.byte	10
 742 00bd 10       		.byte	16
 743 00be 0E       		.byte	14
 744 00bf 20       		.byte	32
 745 00c0 0F       		.byte	15
 746 00c1 08       		.byte	8
 747 00c2 10       		.byte	16
 748 00c3 20       		.byte	32
 749 00c4 17       		.byte	23
 750 00c5 80       		.byte	-128
 751 00c6 18       		.byte	24
 752 00c7 04       		.byte	4
 753 00c8 19       		.byte	25
 754 00c9 40       		.byte	64
 755 00ca 1A       		.byte	26
 756 00cb 10       		.byte	16
 757 00cc 1B       		.byte	27
 758 00cd 02       		.byte	2
 759 00ce 1D       		.byte	29
 760 00cf B0       		.byte	-80
 761 00d0 1E       		.byte	30
 762 00d1 60       		.byte	96
ARM GAS  C:\Users\11800025\AppData\Local\Temp\ccw4Umoi.s 			page 27


 763 00d2 1F       		.byte	31
 764 00d3 20       		.byte	32
 765 00d4 22       		.byte	34
 766 00d5 04       		.byte	4
 767 00d6 27       		.byte	39
 768 00d7 08       		.byte	8
 769 00d8 2F       		.byte	47
 770 00d9 20       		.byte	32
 771 00da 30       		.byte	48
 772 00db 08       		.byte	8
 773 00dc 38       		.byte	56
 774 00dd 04       		.byte	4
 775 00de 3F       		.byte	63
 776 00df 80       		.byte	-128
 777 00e0 40       		.byte	64
 778 00e1 04       		.byte	4
 779 00e2 45       		.byte	69
 780 00e3 20       		.byte	32
 781 00e4 48       		.byte	72
 782 00e5 28       		.byte	40
 783 00e6 49       		.byte	73
 784 00e7 02       		.byte	2
 785 00e8 4F       		.byte	79
 786 00e9 89       		.byte	-119
 787 00ea 50       		.byte	80
 788 00eb 08       		.byte	8
 789 00ec 57       		.byte	87
 790 00ed 40       		.byte	64
 791 00ee 59       		.byte	89
 792 00ef 42       		.byte	66
 793 00f0 5A       		.byte	90
 794 00f1 08       		.byte	8
 795 00f2 5E       		.byte	94
 796 00f3 40       		.byte	64
 797 00f4 5F       		.byte	95
 798 00f5 09       		.byte	9
 799 00f6 71       		.byte	113
 800 00f7 02       		.byte	2
 801 00f8 77       		.byte	119
 802 00f9 80       		.byte	-128
 803 00fa 85       		.byte	-123
 804 00fb 80       		.byte	-128
 805 00fc C0       		.byte	-64
 806 00fd 44       		.byte	68
 807 00fe C2       		.byte	-62
 808 00ff 6C       		.byte	108
 809 0100 C4       		.byte	-60
 810 0101 84       		.byte	-124
 811 0102 CA       		.byte	-54
 812 0103 40       		.byte	64
 813 0104 CC       		.byte	-52
 814 0105 02       		.byte	2
 815 0106 CE       		.byte	-50
 816 0107 12       		.byte	18
 817 0108 D0       		.byte	-48
 818 0109 24       		.byte	36
 819 010a D2       		.byte	-46
ARM GAS  C:\Users\11800025\AppData\Local\Temp\ccw4Umoi.s 			page 28


 820 010b 14       		.byte	20
 821 010c D6       		.byte	-42
 822 010d DB       		.byte	-37
 823 010e 40       		.byte	64
 824 010f 60       		.byte	96
 825 0110 41       		.byte	65
 826 0111 05       		.byte	5
 827 0112 49       		.byte	73
 828 0113 FF       		.byte	-1
 829 0114 4A       		.byte	74
 830 0115 FF       		.byte	-1
 831 0116 4B       		.byte	75
 832 0117 FF       		.byte	-1
 833 0118 4D       		.byte	77
 834 0119 A0       		.byte	-96
 835 011a 4F       		.byte	79
 836 011b 04       		.byte	4
 837 011c 50       		.byte	80
 838 011d 18       		.byte	24
 839 011e 5A       		.byte	90
 840 011f 04       		.byte	4
 841 0120 5D       		.byte	93
 842 0121 01       		.byte	1
 843 0122 5F       		.byte	95
 844 0123 01       		.byte	1
 845 0124 60       		.byte	96
 846 0125 40       		.byte	64
 847 0126 62       		.byte	98
 848 0127 C0       		.byte	-64
 849 0128 64       		.byte	100
 850 0129 40       		.byte	64
 851 012a 65       		.byte	101
 852 012b 40       		.byte	64
 853 012c 66       		.byte	102
 854 012d C0       		.byte	-64
 855 012e 68       		.byte	104
 856 012f C0       		.byte	-64
 857 0130 6A       		.byte	106
 858 0131 C0       		.byte	-64
 859 0132 6C       		.byte	108
 860 0133 C0       		.byte	-64
 861 0134 6E       		.byte	110
 862 0135 C0       		.byte	-64
 863 0136 86       		.byte	-122
 864 0137 06       		.byte	6
 865 0138 8E       		.byte	-114
 866 0139 02       		.byte	2
 867 013a 92       		.byte	-110
 868 013b 01       		.byte	1
 869 013c 9B       		.byte	-101
 870 013d 01       		.byte	1
 871 013e A6       		.byte	-90
 872 013f 0C       		.byte	12
 873 0140 AD       		.byte	-83
 874 0141 01       		.byte	1
 875 0142 B0       		.byte	-80
 876 0143 08       		.byte	8
ARM GAS  C:\Users\11800025\AppData\Local\Temp\ccw4Umoi.s 			page 29


 877 0144 B2       		.byte	-78
 878 0145 04       		.byte	4
 879 0146 B4       		.byte	-76
 880 0147 01       		.byte	1
 881 0148 B6       		.byte	-74
 882 0149 02       		.byte	2
 883 014a B7       		.byte	-73
 884 014b 01       		.byte	1
 885 014c BE       		.byte	-66
 886 014d 40       		.byte	64
 887 014e C0       		.byte	-64
 888 014f 20       		.byte	32
 889 0150 C1       		.byte	-63
 890 0151 05       		.byte	5
 891 0152 C5       		.byte	-59
 892 0153 D1       		.byte	-47
 893 0154 C7       		.byte	-57
 894 0155 20       		.byte	32
 895 0156 C8       		.byte	-56
 896 0157 23       		.byte	35
 897 0158 C9       		.byte	-55
 898 0159 FF       		.byte	-1
 899 015a CA       		.byte	-54
 900 015b FF       		.byte	-1
 901 015c CB       		.byte	-53
 902 015d FF       		.byte	-1
 903 015e CD       		.byte	-51
 904 015f AF       		.byte	-81
 905 0160 CE       		.byte	-50
 906 0161 0F       		.byte	15
 907 0162 CF       		.byte	-49
 908 0163 04       		.byte	4
 909 0164 D0       		.byte	-48
 910 0165 18       		.byte	24
 911 0166 D2       		.byte	-46
 912 0167 80       		.byte	-128
 913 0168 D4       		.byte	-44
 914 0169 05       		.byte	5
 915 016a D8       		.byte	-40
 916 016b 04       		.byte	4
 917 016c D9       		.byte	-39
 918 016d 04       		.byte	4
 919 016e DA       		.byte	-38
 920 016f 04       		.byte	4
 921 0170 DB       		.byte	-37
 922 0171 04       		.byte	4
 923 0172 DC       		.byte	-36
 924 0173 11       		.byte	17
 925 0174 DD       		.byte	-35
 926 0175 11       		.byte	17
 927 0176 DF       		.byte	-33
 928 0177 01       		.byte	1
 929 0178 E0       		.byte	-32
 930 0179 40       		.byte	64
 931 017a E2       		.byte	-30
 932 017b C0       		.byte	-64
 933 017c E4       		.byte	-28
ARM GAS  C:\Users\11800025\AppData\Local\Temp\ccw4Umoi.s 			page 30


 934 017d 40       		.byte	64
 935 017e E5       		.byte	-27
 936 017f 40       		.byte	64
 937 0180 E6       		.byte	-26
 938 0181 C0       		.byte	-64
 939 0182 E8       		.byte	-24
 940 0183 C0       		.byte	-64
 941 0184 EA       		.byte	-22
 942 0185 C0       		.byte	-64
 943 0186 EC       		.byte	-20
 944 0187 C0       		.byte	-64
 945 0188 EE       		.byte	-18
 946 0189 C0       		.byte	-64
 947 018a 00       		.byte	0
 948 018b 04       		.byte	4
 949 018c 02       		.byte	2
 950 018d 02       		.byte	2
 951 018e 09       		.byte	9
 952 018f 02       		.byte	2
 953 0190 10       		.byte	16
 954 0191 20       		.byte	32
 955 0192 18       		.byte	24
 956 0193 04       		.byte	4
 957 0194 1B       		.byte	27
 958 0195 59       		.byte	89
 959 0196 22       		.byte	34
 960 0197 40       		.byte	64
 961 0198 2B       		.byte	43
 962 0199 01       		.byte	1
 963 019a 30       		.byte	48
 964 019b 20       		.byte	32
 965 019c 40       		.byte	64
 966 019d 04       		.byte	4
 967 019e 48       		.byte	72
 968 019f 20       		.byte	32
 969 01a0 49       		.byte	73
 970 01a1 01       		.byte	1
 971 01a2 4A       		.byte	74
 972 01a3 02       		.byte	2
 973 01a4 4E       		.byte	78
 974 01a5 02       		.byte	2
 975 01a6 4F       		.byte	79
 976 01a7 20       		.byte	32
 977 01a8 52       		.byte	82
 978 01a9 02       		.byte	2
 979 01aa 59       		.byte	89
 980 01ab 01       		.byte	1
 981 01ac 5A       		.byte	90
 982 01ad 80       		.byte	-128
 983 01ae 5B       		.byte	91
 984 01af 08       		.byte	8
 985 01b0 71       		.byte	113
 986 01b1 02       		.byte	2
 987 01b2 83       		.byte	-125
 988 01b3 48       		.byte	72
 989 01b4 8B       		.byte	-117
 990 01b5 08       		.byte	8
ARM GAS  C:\Users\11800025\AppData\Local\Temp\ccw4Umoi.s 			page 31


 991 01b6 B7       		.byte	-73
 992 01b7 02       		.byte	2
 993 01b8 C0       		.byte	-64
 994 01b9 05       		.byte	5
 995 01ba C2       		.byte	-62
 996 01bb 08       		.byte	8
 997 01bc C4       		.byte	-60
 998 01bd 04       		.byte	4
 999 01be CA       		.byte	-54
 1000 01bf 08       		.byte	8
 1001 01c0 CC       		.byte	-52
 1002 01c1 04       		.byte	4
 1003 01c2 D0       		.byte	-48
 1004 01c3 04       		.byte	4
 1005 01c4 D2       		.byte	-46
 1006 01c5 38       		.byte	56
 1007 01c6 D6       		.byte	-42
 1008 01c7 0B       		.byte	11
 1009 01c8 EE       		.byte	-18
 1010 01c9 40       		.byte	64
 1011 01ca 87       		.byte	-121
 1012 01cb 10       		.byte	16
 1013 01cc E6       		.byte	-26
 1014 01cd 40       		.byte	64
 1015 01ce 54       		.byte	84
 1016 01cf 02       		.byte	2
 1017 01d0 67       		.byte	103
 1018 01d1 20       		.byte	32
 1019 01d2 93       		.byte	-109
 1020 01d3 20       		.byte	32
 1021 01d4 A0       		.byte	-96
 1022 01d5 02       		.byte	2
 1023 01d6 B4       		.byte	-76
 1024 01d7 02       		.byte	2
 1025 01d8 D6       		.byte	-42
 1026 01d9 20       		.byte	32
 1027 01da D8       		.byte	-40
 1028 01db 80       		.byte	-128
 1029 01dc 3D       		.byte	61
 1030 01dd 02       		.byte	2
 1031 01de 40       		.byte	64
 1032 01df 10       		.byte	16
 1033 01e0 44       		.byte	68
 1034 01e1 01       		.byte	1
 1035 01e2 CE       		.byte	-50
 1036 01e3 01       		.byte	1
 1037 01e4 D0       		.byte	-48
 1038 01e5 06       		.byte	6
 1039 01e6 04       		.byte	4
 1040 01e7 10       		.byte	16
 1041 01e8 09       		.byte	9
 1042 01e9 01       		.byte	1
 1043 01ea 0C       		.byte	12
 1044 01eb 01       		.byte	1
 1045 01ec 5C       		.byte	92
 1046 01ed 80       		.byte	-128
 1047 01ee 88       		.byte	-120
ARM GAS  C:\Users\11800025\AppData\Local\Temp\ccw4Umoi.s 			page 32


 1048 01ef 80       		.byte	-128
 1049 01f0 94       		.byte	-108
 1050 01f1 10       		.byte	16
 1051 01f2 9C       		.byte	-100
 1052 01f3 01       		.byte	1
 1053 01f4 A5       		.byte	-91
 1054 01f5 01       		.byte	1
 1055 01f6 C0       		.byte	-64
 1056 01f7 01       		.byte	1
 1057 01f8 C2       		.byte	-62
 1058 01f9 0C       		.byte	12
 1059 01fa D6       		.byte	-42
 1060 01fb 04       		.byte	4
 1061 01fc E0       		.byte	-32
 1062 01fd 04       		.byte	4
 1063 01fe 01       		.byte	1
 1064 01ff 0A       		.byte	10
 1065 0200 10       		.byte	16
 1066 0201 0A       		.byte	10
 1067 0202 0000     		.space	2
 1068              		.type	cy_cfg_addr_table.4901, %object
 1069              		.size	cy_cfg_addr_table.4901, 40
 1070              	cy_cfg_addr_table.4901:
 1071 0204 03000F40 		.word	1074724867
 1072 0208 52300F40 		.word	1074737234
 1073 020c 2C310F40 		.word	1074737452
 1074 0210 3E320F40 		.word	1074737726
 1075 0214 20330F40 		.word	1074737952
 1076 0218 02400F40 		.word	1074741250
 1077 021c 07410F40 		.word	1074741511
 1078 0220 05420F40 		.word	1074741765
 1079 0224 0C430F40 		.word	1074742028
 1080 0228 02600F40 		.word	1074749442
 1081              		.text
 1082              	.Letext0:
 1083              		.file 2 "c:\\program files (x86)\\cypress\\psoc creator\\4.2\\psoc creator\\import\\gnu\\arm\\5.4.
 1084              		.file 3 "Generated_Source\\PSoC4\\cytypes.h"
 1085              		.file 4 "Generated_Source\\PSoC4\\CyLFClk.h"
 1086              		.file 5 "Generated_Source\\PSoC4\\CyLib.h"