ARM GAS  C:\Users\11800025\AppData\Local\Temp\cceROKYh.s 			page 1


   1              		.syntax unified
   2              		.cpu cortex-m0
   3              		.fpu softvfp
   4              		.eabi_attribute 20, 1
   5              		.eabi_attribute 21, 1
   6              		.eabi_attribute 23, 3
   7              		.eabi_attribute 24, 1
   8              		.eabi_attribute 25, 1
   9              		.eabi_attribute 26, 1
  10              		.eabi_attribute 30, 1
  11              		.eabi_attribute 34, 0
  12              		.eabi_attribute 18, 4
  13              		.thumb
  14              		.syntax unified
  15              		.file	"distance.c"
  16              		.text
  17              	.Ltext0:
  18              		.cfi_sections	.debug_frame
  19              		.section	.text.print,"ax",%progbits
  20              		.align	2
  21              		.global	print
  22              		.code	16
  23              		.thumb_func
  24              		.type	print, %function
  25              	print:
  26              	.LFB35:
  27              		.file 1 "distance.c"
   1:distance.c    **** /* ========================================
   2:distance.c    ****  *
   3:distance.c    ****  * Copyright YOUR COMPANY, THE YEAR
   4:distance.c    ****  * All Rights Reserved
   5:distance.c    ****  * UNPUBLISHED, LICENSED SOFTWARE.
   6:distance.c    ****  *
   7:distance.c    ****  * CONFIDENTIAL AND PROPRIETARY INFORMATION
   8:distance.c    ****  * WHICH IS THE PROPERTY OF your company.
   9:distance.c    ****  *
  10:distance.c    ****  * ========================================
  11:distance.c    **** */
  12:distance.c    **** 
  13:distance.c    **** /* [] END OF FILE */
  14:distance.c    **** 
  15:distance.c    **** #include "project.h"
  16:distance.c    **** #include "stdlib.h"
  17:distance.c    **** #include "distance.h"
  18:distance.c    **** 
  19:distance.c    **** void print()
  20:distance.c    **** {
  28              		.loc 1 20 0
  29              		.cfi_startproc
  30              		@ args = 0, pretend = 0, frame = 0
  31              		@ frame_needed = 0, uses_anonymous_args = 0
  32 0000 10B5     		push	{r4, lr}
  33              		.cfi_def_cfa_offset 8
  34              		.cfi_offset 4, -8
  35              		.cfi_offset 14, -4
  21:distance.c    ****         UART_UartPutString(" Afstand links = "); 
  36              		.loc 1 21 0
ARM GAS  C:\Users\11800025\AppData\Local\Temp\cceROKYh.s 			page 2


  37 0002 1348     		ldr	r0, .L2
  38 0004 FFF7FEFF 		bl	UART_UartPutString
  39              	.LVL0:
  22:distance.c    ****         UART_UartPutString(afstand_links);
  40              		.loc 1 22 0
  41 0008 1248     		ldr	r0, .L2+4
  42 000a FFF7FEFF 		bl	UART_UartPutString
  43              	.LVL1:
  23:distance.c    ****         UART_UartPutString(" cm ");  
  44              		.loc 1 23 0
  45 000e 124C     		ldr	r4, .L2+8
  46 0010 2000     		movs	r0, r4
  47 0012 FFF7FEFF 		bl	UART_UartPutString
  48              	.LVL2:
  24:distance.c    ****         
  25:distance.c    ****         UART_UartPutChar('\t');
  49              		.loc 1 25 0
  50 0016 0920     		movs	r0, #9
  51 0018 FFF7FEFF 		bl	UART_SpiUartWriteTxData
  52              	.LVL3:
  26:distance.c    ****         
  27:distance.c    ****         UART_UartPutString(" Afstand midden = "); 
  53              		.loc 1 27 0
  54 001c 0F48     		ldr	r0, .L2+12
  55 001e FFF7FEFF 		bl	UART_UartPutString
  56              	.LVL4:
  28:distance.c    ****         UART_UartPutString(afstand_midden);
  57              		.loc 1 28 0
  58 0022 0F48     		ldr	r0, .L2+16
  59 0024 FFF7FEFF 		bl	UART_UartPutString
  60              	.LVL5:
  29:distance.c    ****         UART_UartPutString(" cm ");  
  61              		.loc 1 29 0
  62 0028 2000     		movs	r0, r4
  63 002a FFF7FEFF 		bl	UART_UartPutString
  64              	.LVL6:
  30:distance.c    ****         
  31:distance.c    ****         UART_UartPutChar('\t');
  65              		.loc 1 31 0
  66 002e 0920     		movs	r0, #9
  67 0030 FFF7FEFF 		bl	UART_SpiUartWriteTxData
  68              	.LVL7:
  32:distance.c    ****         
  33:distance.c    ****         UART_UartPutString(" Afstand rechts = "); 
  69              		.loc 1 33 0
  70 0034 0B48     		ldr	r0, .L2+20
  71 0036 FFF7FEFF 		bl	UART_UartPutString
  72              	.LVL8:
  34:distance.c    ****         UART_UartPutString(afstand_rechts);
  73              		.loc 1 34 0
  74 003a 0B48     		ldr	r0, .L2+24
  75 003c FFF7FEFF 		bl	UART_UartPutString
  76              	.LVL9:
  35:distance.c    ****         UART_UartPutString(" cm ");              
  77              		.loc 1 35 0
  78 0040 2000     		movs	r0, r4
  79 0042 FFF7FEFF 		bl	UART_UartPutString
ARM GAS  C:\Users\11800025\AppData\Local\Temp\cceROKYh.s 			page 3


  80              	.LVL10:
  36:distance.c    ****         
  37:distance.c    ****         UART_UartPutCRLF(0u);
  81              		.loc 1 37 0
  82 0046 0020     		movs	r0, #0
  83 0048 FFF7FEFF 		bl	UART_UartPutCRLF
  84              	.LVL11:
  38:distance.c    **** }
  85              		.loc 1 38 0
  86              		@ sp needed
  87 004c 10BD     		pop	{r4, pc}
  88              	.L3:
  89 004e C046     		.align	2
  90              	.L2:
  91 0050 00000000 		.word	.LC0
  92 0054 00000000 		.word	afstand_links
  93 0058 14000000 		.word	.LC3
  94 005c 1C000000 		.word	.LC5
  95 0060 00000000 		.word	afstand_midden
  96 0064 30000000 		.word	.LC8
  97 0068 00000000 		.word	afstand_rechts
  98              		.cfi_endproc
  99              	.LFE35:
 100              		.size	print, .-print
 101              		.section	.text.switchToString,"ax",%progbits
 102              		.align	2
 103              		.global	switchToString
 104              		.code	16
 105              		.thumb_func
 106              		.type	switchToString, %function
 107              	switchToString:
 108              	.LFB36:
  39:distance.c    **** 
  40:distance.c    **** void switchToString()
  41:distance.c    **** {
 109              		.loc 1 41 0
 110              		.cfi_startproc
 111              		@ args = 0, pretend = 0, frame = 0
 112              		@ frame_needed = 0, uses_anonymous_args = 0
 113 0000 10B5     		push	{r4, lr}
 114              		.cfi_def_cfa_offset 8
 115              		.cfi_offset 4, -8
 116              		.cfi_offset 14, -4
  42:distance.c    ****         itoa(a_rechts,afstand_rechts,10);
 117              		.loc 1 42 0
 118 0002 084C     		ldr	r4, .L5
 119 0004 0A22     		movs	r2, #10
 120 0006 0849     		ldr	r1, .L5+4
 121 0008 2068     		ldr	r0, [r4]
 122 000a FFF7FEFF 		bl	itoa
 123              	.LVL12:
  43:distance.c    ****         itoa(a_midden,afstand_midden,10); 
 124              		.loc 1 43 0
 125 000e 0A22     		movs	r2, #10
 126 0010 0649     		ldr	r1, .L5+8
 127 0012 6068     		ldr	r0, [r4, #4]
 128 0014 FFF7FEFF 		bl	itoa
ARM GAS  C:\Users\11800025\AppData\Local\Temp\cceROKYh.s 			page 4


 129              	.LVL13:
  44:distance.c    ****         itoa(a_links, afstand_links,10);
 130              		.loc 1 44 0
 131 0018 A068     		ldr	r0, [r4, #8]
 132 001a 0A22     		movs	r2, #10
 133 001c 0449     		ldr	r1, .L5+12
 134 001e FFF7FEFF 		bl	itoa
 135              	.LVL14:
  45:distance.c    **** }
 136              		.loc 1 45 0
 137              		@ sp needed
 138 0022 10BD     		pop	{r4, pc}
 139              	.L6:
 140              		.align	2
 141              	.L5:
 142 0024 00000000 		.word	.LANCHOR0
 143 0028 00000000 		.word	afstand_rechts
 144 002c 00000000 		.word	afstand_midden
 145 0030 00000000 		.word	afstand_links
 146              		.cfi_endproc
 147              	.LFE36:
 148              		.size	switchToString, .-switchToString
 149              		.section	.text.getDistance,"ax",%progbits
 150              		.align	2
 151              		.global	getDistance
 152              		.code	16
 153              		.thumb_func
 154              		.type	getDistance, %function
 155              	getDistance:
 156              	.LFB37:
  46:distance.c    **** 
  47:distance.c    **** void getDistance()
  48:distance.c    **** {
 157              		.loc 1 48 0
 158              		.cfi_startproc
 159              		@ args = 0, pretend = 0, frame = 0
 160              		@ frame_needed = 0, uses_anonymous_args = 0
 161 0000 10B5     		push	{r4, lr}
 162              		.cfi_def_cfa_offset 8
 163              		.cfi_offset 4, -8
 164              		.cfi_offset 14, -4
  49:distance.c    ****         a_links  = UltraSoon_Links_ReadCompare(); 
 165              		.loc 1 49 0
 166 0002 FFF7FEFF 		bl	UltraSoon_Links_ReadCompare
 167              	.LVL15:
 168 0006 044C     		ldr	r4, .L8
 169 0008 A060     		str	r0, [r4, #8]
  50:distance.c    ****         a_midden = UltraSoon_Midden_ReadCompare();  
 170              		.loc 1 50 0
 171 000a FFF7FEFF 		bl	UltraSoon_Midden_ReadCompare
 172              	.LVL16:
 173 000e 6060     		str	r0, [r4, #4]
  51:distance.c    ****         a_rechts = UltraSoon_Rechts_ReadCompare();
 174              		.loc 1 51 0
 175 0010 FFF7FEFF 		bl	UltraSoon_Rechts_ReadCompare
 176              	.LVL17:
 177 0014 2060     		str	r0, [r4]
ARM GAS  C:\Users\11800025\AppData\Local\Temp\cceROKYh.s 			page 5


  52:distance.c    ****         //MaxAndMin();
  53:distance.c    **** }
 178              		.loc 1 53 0
 179              		@ sp needed
 180 0016 10BD     		pop	{r4, pc}
 181              	.L9:
 182              		.align	2
 183              	.L8:
 184 0018 00000000 		.word	.LANCHOR0
 185              		.cfi_endproc
 186              	.LFE37:
 187              		.size	getDistance, .-getDistance
 188              		.global	a_links
 189              		.global	a_midden
 190              		.global	a_rechts
 191              		.comm	afstand_links,1,4
 192              		.comm	afstand_midden,1,4
 193              		.comm	afstand_rechts,1,4
 194              		.section	.rodata.str1.4,"aMS",%progbits,1
 195              		.align	2
 196              	.LC0:
 197 0000 20416673 		.ascii	" Afstand links = \000"
 197      74616E64 
 197      206C696E 
 197      6B73203D 
 197      2000
 198 0012 0000     		.space	2
 199              	.LC3:
 200 0014 20636D20 		.ascii	" cm \000"
 200      00
 201 0019 000000   		.space	3
 202              	.LC5:
 203 001c 20416673 		.ascii	" Afstand midden = \000"
 203      74616E64 
 203      206D6964 
 203      64656E20 
 203      3D2000
 204 002f 00       		.space	1
 205              	.LC8:
 206 0030 20416673 		.ascii	" Afstand rechts = \000"
 206      74616E64 
 206      20726563 
 206      68747320 
 206      3D2000
 207              		.bss
 208              		.align	2
 209              		.set	.LANCHOR0,. + 0
 210              		.type	a_rechts, %object
 211              		.size	a_rechts, 4
 212              	a_rechts:
 213 0000 00000000 		.space	4
 214              		.type	a_midden, %object
 215              		.size	a_midden, 4
 216              	a_midden:
 217 0004 00000000 		.space	4
 218              		.type	a_links, %object
 219              		.size	a_links, 4
ARM GAS  C:\Users\11800025\AppData\Local\Temp\cceROKYh.s 			page 6


 220              	a_links:
 221 0008 00000000 		.space	4
 222              		.text
 223              	.Letext0:
 224              		.file 2 "distance.h"
 225              		.file 3 "Generated_Source\\PSoC4/UART_SPI_UART.h"
 226              		.file 4 "c:\\program files (x86)\\cypress\\psoc creator\\4.2\\psoc creator\\import\\gnu\\arm\\5.4.
 227              		.file 5 "Generated_Source\\PSoC4/UltraSoon_Links.h"
 228              		.file 6 "Generated_Source\\PSoC4/UltraSoon_Midden.h"
 229              		.file 7 "Generated_Source\\PSoC4/UltraSoon_Rechts.h"
 230              		.file 8 "Generated_Source\\PSoC4/cytypes.h"
 231              		.file 9 "Generated_Source\\PSoC4/BLE_Stack.h"