ARM GAS  C:\Users\11800025\AppData\Local\Temp\cckN4rPz.s 			page 1


   1              		.syntax unified
   2              		.cpu cortex-m0
   3              		.fpu softvfp
   4              		.eabi_attribute 20, 1
   5              		.eabi_attribute 21, 1
   6              		.eabi_attribute 23, 3
   7              		.eabi_attribute 24, 1
   8              		.eabi_attribute 25, 1
   9              		.eabi_attribute 26, 1
  10              		.eabi_attribute 30, 1
  11              		.eabi_attribute 34, 0
  12              		.eabi_attribute 18, 4
  13              		.thumb
  14              		.syntax unified
  15              		.file	"main.c"
  16              		.text
  17              	.Ltext0:
  18              		.cfi_sections	.debug_frame
  19              		.section	.text.updateCharacteristic,"ax",%progbits
  20              		.align	2
  21              		.global	updateCharacteristic
  22              		.code	16
  23              		.thumb_func
  24              		.type	updateCharacteristic, %function
  25              	updateCharacteristic:
  26              	.LFB37:
  27              		.file 1 "BLE.c"
   1:BLE.c         **** /* ========================================
   2:BLE.c         ****  *
   3:BLE.c         ****  * Copyright YOUR COMPANY, THE YEAR
   4:BLE.c         ****  * All Rights Reserved
   5:BLE.c         ****  * UNPUBLISHED, LICENSED SOFTWARE.
   6:BLE.c         ****  *
   7:BLE.c         ****  * CONFIDENTIAL AND PROPRIETARY INFORMATION
   8:BLE.c         ****  * WHICH IS THE PROPERTY OF your company.
   9:BLE.c         ****  *
  10:BLE.c         ****  * ========================================
  11:BLE.c         **** */
  12:BLE.c         **** 
  13:BLE.c         **** /* [] END OF FILE */
  14:BLE.c         **** #include "project.h"  
  15:BLE.c         **** #include <stdio.h>  
  16:BLE.c         **** #include <stdlib.h>
  17:BLE.c         **** #include "BLE.h"
  18:BLE.c         **** 
  19:BLE.c         **** void StackEventHandler( uint32 eventCode, void *eventParam )
  20:BLE.c         **** {
  21:BLE.c         ****     CYBLE_GATTS_WRITE_REQ_PARAM_T *wrReqParam;
  22:BLE.c         ****     updateCharacteristic(whatToDo);
  23:BLE.c         ****     
  24:BLE.c         ****     switch( eventCode )
  25:BLE.c         ****     {
  26:BLE.c         **** 
  27:BLE.c         ****         case CYBLE_EVT_STACK_ON:
  28:BLE.c         ****             restartAdvertisement = 1;       
  29:BLE.c         ****         break;
  30:BLE.c         **** 
ARM GAS  C:\Users\11800025\AppData\Local\Temp\cckN4rPz.s 			page 2


  31:BLE.c         ****         case CYBLE_EVT_TIMEOUT:
  32:BLE.c         ****         break;
  33:BLE.c         **** 
  34:BLE.c         ****         case CYBLE_EVT_GAP_DEVICE_CONNECTED:
  35:BLE.c         ****         
  36:BLE.c         ****         break;
  37:BLE.c         **** 
  38:BLE.c         ****         case CYBLE_EVT_GAP_DEVICE_DISCONNECTED:            
  39:BLE.c         ****             restartAdvertisement = 1; 
  40:BLE.c         ****         
  41:BLE.c         ****             break;
  42:BLE.c         **** 
  43:BLE.c         ****         /* GAP Peripheral events */
  44:BLE.c         **** 
  45:BLE.c         ****         case CYBLE_EVT_GAPP_ADVERTISEMENT_START_STOP:
  46:BLE.c         ****             if(CyBle_GetState() == CYBLE_STATE_DISCONNECTED)
  47:BLE.c         ****             {
  48:BLE.c         ****                 restartAdvertisement = 0;
  49:BLE.c         ****             }
  50:BLE.c         ****             break;
  51:BLE.c         **** 
  52:BLE.c         ****         /* GATT events */
  53:BLE.c         **** 
  54:BLE.c         ****         case CYBLE_EVT_GATT_CONNECT_IND:
  55:BLE.c         ****             connectionHandle = *(CYBLE_CONN_HANDLE_T*)eventParam;
  56:BLE.c         ****             deviceConnected = 1; 
  57:BLE.c         ****             
  58:BLE.c         ****             break;
  59:BLE.c         **** 
  60:BLE.c         ****         case CYBLE_EVT_GATT_DISCONNECT_IND:
  61:BLE.c         ****             deviceConnected = 0;            
  62:BLE.c         ****             break;
  63:BLE.c         ****             
  64:BLE.c         ****         case CYBLE_EVT_GATTS_WRITE_REQ:				
  65:BLE.c         **** 			/*When this event is triggered, the peripheral has received 
  66:BLE.c         **** 			* a write command on the custom characteristic */
  67:BLE.c         **** 			
  68:BLE.c         **** 			/* Extract the write value from the event parameter */
  69:BLE.c         ****             wrReqParam = (CYBLE_GATTS_WRITE_REQ_PARAM_T *) eventParam;
  70:BLE.c         **** 			
  71:BLE.c         **** 			/* Check if the returned handle is matching to Random Data Client custom configuration*/
  72:BLE.c         ****             if( CYBLE_SENSOR1_CUSTOM_CHARACTERISTIC_CHAR_HANDLE  == wrReqParam->handleValPair.attrH
  73:BLE.c         ****             {
  74:BLE.c         ****                 whatToDo = wrReqParam->handleValPair.value.val[CYBLE_SENSOR1_CUSTOM_CHARACTERISTIC_
  75:BLE.c         ****                // updateCharacteristic(whatToDo);
  76:BLE.c         ****                 /* Set flag so that application can start sending notifications.*/
  77:BLE.c         ****                /* started = 1; */
  78:BLE.c         **** 			}
  79:BLE.c         ****             CyBle_GattsWriteRsp(connectionHandle);
  80:BLE.c         ****             break; 
  81:BLE.c         **** 
  82:BLE.c         ****         /* default catch-all case */
  83:BLE.c         ****         case CYBLE_EVT_STACK_BUSY_STATUS:
  84:BLE.c         ****             busyStatus = *(uint8*) eventParam;
  85:BLE.c         ****             
  86:BLE.c         ****         default:
  87:BLE.c         ****         break;
ARM GAS  C:\Users\11800025\AppData\Local\Temp\cckN4rPz.s 			page 3


  88:BLE.c         ****     }
  89:BLE.c         ****   }
  90:BLE.c         **** 
  91:BLE.c         **** void updateCharacteristic()
  92:BLE.c         **** {
  28              		.loc 1 92 0
  29              		.cfi_startproc
  30              		@ args = 0, pretend = 0, frame = 40
  31              		@ frame_needed = 0, uses_anonymous_args = 0
  32 0000 70B5     		push	{r4, r5, r6, lr}
  33              		.cfi_def_cfa_offset 16
  34              		.cfi_offset 4, -16
  35              		.cfi_offset 5, -12
  36              		.cfi_offset 6, -8
  37              		.cfi_offset 14, -4
  38 0002 8AB0     		sub	sp, sp, #40
  39              		.cfi_def_cfa_offset 56
  93:BLE.c         ****    
  94:BLE.c         ****     value = a_links;
  40              		.loc 1 94 0
  41 0004 174B     		ldr	r3, .L2
  42 0006 184A     		ldr	r2, .L2+4
  43 0008 1278     		ldrb	r2, [r2]
  44 000a 1A70     		strb	r2, [r3]
  95:BLE.c         ****     value2 =a_midden;
  45              		.loc 1 95 0
  46 000c 174A     		ldr	r2, .L2+8
  47 000e 1278     		ldrb	r2, [r2]
  48 0010 5A70     		strb	r2, [r3, #1]
  96:BLE.c         ****     value3 =a_rechts;
  49              		.loc 1 96 0
  50 0012 174A     		ldr	r2, .L2+12
  51 0014 1278     		ldrb	r2, [r2]
  52 0016 9A70     		strb	r2, [r3, #2]
  97:BLE.c         ****     
  98:BLE.c         ****     CYBLE_GATT_HANDLE_VALUE_PAIR_T Sensor_links; 
  99:BLE.c         ****     CYBLE_GATT_HANDLE_VALUE_PAIR_T Sensor_midden; 
 100:BLE.c         ****     CYBLE_GATT_HANDLE_VALUE_PAIR_T Sensor_rechts; 
 101:BLE.c         **** 
 102:BLE.c         ****     Sensor_links.attrHandle = CYBLE_SENSOR1_CUSTOM_CHARACTERISTIC_CHAR_HANDLE;
  53              		.loc 1 102 0
  54 0018 07A8     		add	r0, sp, #28
  55 001a 0E22     		movs	r2, #14
  56 001c 0281     		strh	r2, [r0, #8]
 103:BLE.c         ****     Sensor_links.value.val = (uint8*)&value;
  57              		.loc 1 103 0
  58 001e 0793     		str	r3, [sp, #28]
 104:BLE.c         ****     Sensor_links.value.len = 1; 
  59              		.loc 1 104 0
  60 0020 0D3A     		subs	r2, r2, #13
  61 0022 8280     		strh	r2, [r0, #4]
 105:BLE.c         ****     
 106:BLE.c         ****     Sensor_midden.attrHandle = CYBLE_SENSOR2_CUSTOM_CHARACTERISTIC_CHAR_HANDLE;
  62              		.loc 1 106 0
  63 0024 04AD     		add	r5, sp, #16
  64 0026 1221     		movs	r1, #18
  65 0028 2981     		strh	r1, [r5, #8]
ARM GAS  C:\Users\11800025\AppData\Local\Temp\cckN4rPz.s 			page 4


 107:BLE.c         ****     Sensor_midden.value.val = (uint8*)&value2;
  66              		.loc 1 107 0
  67 002a 591C     		adds	r1, r3, #1
  68 002c 0491     		str	r1, [sp, #16]
 108:BLE.c         ****     Sensor_midden.value.len = 1; 
  69              		.loc 1 108 0
  70 002e AA80     		strh	r2, [r5, #4]
 109:BLE.c         ****     
 110:BLE.c         ****     Sensor_rechts.attrHandle = CYBLE_SENSOR3_CUSTOM_CHARACTERISTIC_CHAR_HANDLE;
  71              		.loc 1 110 0
  72 0030 01AC     		add	r4, sp, #4
  73 0032 1621     		movs	r1, #22
  74 0034 2181     		strh	r1, [r4, #8]
 111:BLE.c         ****     Sensor_rechts.value.val = (uint8*)&value3;
  75              		.loc 1 111 0
  76 0036 0233     		adds	r3, r3, #2
  77 0038 0193     		str	r3, [sp, #4]
 112:BLE.c         ****     Sensor_rechts.value.len = 1;    
  78              		.loc 1 112 0
  79 003a A280     		strh	r2, [r4, #4]
 113:BLE.c         ****     
 114:BLE.c         ****     CyBle_GattsWriteAttributeValue(&Sensor_links,0, &connectionHandle, CYBLE_GATT_DB_LOCALLY_INITIA
  80              		.loc 1 114 0
  81 003c 0D4E     		ldr	r6, .L2+16
  82 003e 0023     		movs	r3, #0
  83 0040 3200     		movs	r2, r6
  84 0042 0021     		movs	r1, #0
  85 0044 FFF7FEFF 		bl	CyBle_GattsWriteAttributeValue
  86              	.LVL0:
 115:BLE.c         ****     CyBle_GattsWriteAttributeValue(&Sensor_midden,0, &connectionHandle, CYBLE_GATT_DB_LOCALLY_INITI
  87              		.loc 1 115 0
  88 0048 0023     		movs	r3, #0
  89 004a 3200     		movs	r2, r6
  90 004c 0021     		movs	r1, #0
  91 004e 2800     		movs	r0, r5
  92 0050 FFF7FEFF 		bl	CyBle_GattsWriteAttributeValue
  93              	.LVL1:
 116:BLE.c         ****     CyBle_GattsWriteAttributeValue(&Sensor_rechts,0, &connectionHandle, CYBLE_GATT_DB_LOCALLY_INITI
  94              		.loc 1 116 0
  95 0054 0023     		movs	r3, #0
  96 0056 3200     		movs	r2, r6
  97 0058 0021     		movs	r1, #0
  98 005a 2000     		movs	r0, r4
  99 005c FFF7FEFF 		bl	CyBle_GattsWriteAttributeValue
 100              	.LVL2:
 117:BLE.c         ****     
 118:BLE.c         ****     
 119:BLE.c         ****     //CyBle_GattsReadAttributeValue(&CCCDHandle, &connectionHandle, CYBLE_GATT_DB_LOCALLY_INITIATED
 120:BLE.c         **** 
 121:BLE.c         **** }
 101              		.loc 1 121 0
 102 0060 0AB0     		add	sp, sp, #40
 103              		@ sp needed
 104 0062 70BD     		pop	{r4, r5, r6, pc}
 105              	.L3:
 106              		.align	2
 107              	.L2:
ARM GAS  C:\Users\11800025\AppData\Local\Temp\cckN4rPz.s 			page 5


 108 0064 00000000 		.word	.LANCHOR0
 109 0068 00000000 		.word	a_links
 110 006c 00000000 		.word	a_midden
 111 0070 00000000 		.word	a_rechts
 112 0074 00000000 		.word	connectionHandle
 113              		.cfi_endproc
 114              	.LFE37:
 115              		.size	updateCharacteristic, .-updateCharacteristic
 116              		.section	.text.StackEventHandler,"ax",%progbits
 117              		.align	2
 118              		.global	StackEventHandler
 119              		.code	16
 120              		.thumb_func
 121              		.type	StackEventHandler, %function
 122              	StackEventHandler:
 123              	.LFB36:
  20:BLE.c         ****     CYBLE_GATTS_WRITE_REQ_PARAM_T *wrReqParam;
 124              		.loc 1 20 0
 125              		.cfi_startproc
 126              		@ args = 0, pretend = 0, frame = 0
 127              		@ frame_needed = 0, uses_anonymous_args = 0
 128              	.LVL3:
 129 0000 70B5     		push	{r4, r5, r6, lr}
 130              		.cfi_def_cfa_offset 16
 131              		.cfi_offset 4, -16
 132              		.cfi_offset 5, -12
 133              		.cfi_offset 6, -8
 134              		.cfi_offset 14, -4
 135 0002 0400     		movs	r4, r0
 136 0004 0D00     		movs	r5, r1
  22:BLE.c         ****     
 137              		.loc 1 22 0
 138 0006 224B     		ldr	r3, .L15
 139 0008 1878     		ldrb	r0, [r3]
 140              	.LVL4:
 141 000a FFF7FEFF 		bl	updateCharacteristic
 142              	.LVL5:
  24:BLE.c         ****     {
 143              		.loc 1 24 0
 144 000e 282C     		cmp	r4, #40
 145 0010 12D0     		beq	.L6
 146 0012 06D8     		bhi	.L7
 147 0014 052C     		cmp	r4, #5
 148 0016 37D0     		beq	.L8
 149 0018 262C     		cmp	r4, #38
 150 001a 11D0     		beq	.L9
 151 001c 012C     		cmp	r4, #1
 152 001e 36D1     		bne	.L4
 153 0020 06E0     		b	.L10
 154              	.L7:
 155 0022 422C     		cmp	r4, #66
 156 0024 1DD0     		beq	.L11
 157 0026 4C2C     		cmp	r4, #76
 158 0028 1FD0     		beq	.L12
 159 002a 412C     		cmp	r4, #65
 160 002c 2FD1     		bne	.L4
 161 002e 0FE0     		b	.L13
ARM GAS  C:\Users\11800025\AppData\Local\Temp\cckN4rPz.s 			page 6


 162              	.L10:
  28:BLE.c         ****         break;
 163              		.loc 1 28 0
 164 0030 0122     		movs	r2, #1
 165 0032 184B     		ldr	r3, .L15+4
 166 0034 DA70     		strb	r2, [r3, #3]
  29:BLE.c         **** 
 167              		.loc 1 29 0
 168 0036 2AE0     		b	.L4
 169              	.L6:
  39:BLE.c         ****         
 170              		.loc 1 39 0
 171 0038 0122     		movs	r2, #1
 172 003a 164B     		ldr	r3, .L15+4
 173 003c DA70     		strb	r2, [r3, #3]
  41:BLE.c         **** 
 174              		.loc 1 41 0
 175 003e 26E0     		b	.L4
 176              	.L9:
  46:BLE.c         ****             {
 177              		.loc 1 46 0
 178 0040 154B     		ldr	r3, .L15+8
 179 0042 1B78     		ldrb	r3, [r3]
 180 0044 042B     		cmp	r3, #4
 181 0046 22D1     		bne	.L4
  48:BLE.c         ****             }
 182              		.loc 1 48 0
 183 0048 0022     		movs	r2, #0
 184 004a 124B     		ldr	r3, .L15+4
 185 004c DA70     		strb	r2, [r3, #3]
 186 004e 1EE0     		b	.L4
 187              	.L13:
  55:BLE.c         ****             deviceConnected = 1; 
 188              		.loc 1 55 0
 189 0050 0222     		movs	r2, #2
 190 0052 2900     		movs	r1, r5
 191 0054 1148     		ldr	r0, .L15+12
 192 0056 FFF7FEFF 		bl	memcpy
 193              	.LVL6:
  56:BLE.c         ****             
 194              		.loc 1 56 0
 195 005a 0122     		movs	r2, #1
 196 005c 0D4B     		ldr	r3, .L15+4
 197 005e 1A71     		strb	r2, [r3, #4]
  58:BLE.c         **** 
 198              		.loc 1 58 0
 199 0060 15E0     		b	.L4
 200              	.L11:
  61:BLE.c         ****             break;
 201              		.loc 1 61 0
 202 0062 0022     		movs	r2, #0
 203 0064 0B4B     		ldr	r3, .L15+4
 204 0066 1A71     		strb	r2, [r3, #4]
  62:BLE.c         ****             
 205              		.loc 1 62 0
 206 0068 11E0     		b	.L4
 207              	.L12:
ARM GAS  C:\Users\11800025\AppData\Local\Temp\cckN4rPz.s 			page 7


 208              	.LVL7:
  72:BLE.c         ****             {
 209              		.loc 1 72 0
 210 006a AB89     		ldrh	r3, [r5, #12]
 211 006c 0E2B     		cmp	r3, #14
 212 006e 03D1     		bne	.L14
  74:BLE.c         ****                // updateCharacteristic(whatToDo);
 213              		.loc 1 74 0
 214 0070 6B68     		ldr	r3, [r5, #4]
 215 0072 9A7B     		ldrb	r2, [r3, #14]
 216 0074 064B     		ldr	r3, .L15
 217 0076 1A70     		strb	r2, [r3]
 218              	.L14:
  79:BLE.c         ****             break; 
 219              		.loc 1 79 0
 220 0078 084A     		ldr	r2, .L15+12
 221 007a 1378     		ldrb	r3, [r2]
 222 007c 5078     		ldrb	r0, [r2, #1]
 223 007e 0002     		lsls	r0, r0, #8
 224 0080 1843     		orrs	r0, r3
 225 0082 FFF7FEFF 		bl	CyBle_GattsWriteRsp
 226              	.LVL8:
  80:BLE.c         **** 
 227              		.loc 1 80 0
 228 0086 02E0     		b	.L4
 229              	.LVL9:
 230              	.L8:
  84:BLE.c         ****             
 231              		.loc 1 84 0
 232 0088 2A78     		ldrb	r2, [r5]
 233 008a 024B     		ldr	r3, .L15+4
 234 008c 5A71     		strb	r2, [r3, #5]
 235              	.L4:
  89:BLE.c         **** 
 236              		.loc 1 89 0
 237              		@ sp needed
 238              	.LVL10:
 239              	.LVL11:
 240 008e 70BD     		pop	{r4, r5, r6, pc}
 241              	.L16:
 242              		.align	2
 243              	.L15:
 244 0090 00000000 		.word	whatToDo
 245 0094 00000000 		.word	.LANCHOR0
 246 0098 00000000 		.word	cyBle_state
 247 009c 00000000 		.word	connectionHandle
 248              		.cfi_endproc
 249              	.LFE36:
 250              		.size	StackEventHandler, .-StackEventHandler
 251              		.section	.text.print,"ax",%progbits
 252              		.align	2
 253              		.global	print
 254              		.code	16
 255              		.thumb_func
 256              		.type	print, %function
 257              	print:
 258              	.LFB39:
ARM GAS  C:\Users\11800025\AppData\Local\Temp\cckN4rPz.s 			page 8


 259              		.file 2 "main.c"
   1:main.c        **** #include "project.h"  
   2:main.c        **** #include <stdio.h>  
   3:main.c        **** #include <stdlib.h>
   4:main.c        **** #include "BLE.c"
   5:main.c        **** 
   6:main.c        **** void getDistance();
   7:main.c        **** void switchToString();
   8:main.c        **** void print();
   9:main.c        **** void MaxAndMin();
  10:main.c        **** 
  11:main.c        **** char afstand_rechts[1];
  12:main.c        **** char afstand_midden[1];
  13:main.c        **** char afstand_links[1];
  14:main.c        **** 
  15:main.c        **** uint8 value = 0;
  16:main.c        **** uint8 value2 = 0;
  17:main.c        **** uint8 value3 = 0;
  18:main.c        **** 
  19:main.c        ****  
  20:main.c        **** void StackEventHandler( uint32 eventCode, void *eventParam );
  21:main.c        **** 
  22:main.c        **** int main(void)  
  23:main.c        **** {   
  24:main.c        ****     CyGlobalIntEnable; /* Enable global interrupts. */  
  25:main.c        ****     
  26:main.c        ****     UART_Start();  
  27:main.c        ****     PWM_Start(); 
  28:main.c        **** 
  29:main.c        ****     UltraSoon_Links_Start();
  30:main.c        ****     UltraSoon_Midden_Start();
  31:main.c        ****     UltraSoon_Rechts_Start();
  32:main.c        ****     
  33:main.c        ****     CyBle_Start( StackEventHandler );
  34:main.c        ****     
  35:main.c        ****     for(;;)
  36:main.c        ****     {
  37:main.c        ****         getDistance();
  38:main.c        ****         switchToString();
  39:main.c        ****         print();    
  40:main.c        ****         CyBle_ProcessEvents();
  41:main.c        ****         //CyDelay(500);  
  42:main.c        ****          if(restartAdvertisement)
  43:main.c        ****         {
  44:main.c        ****             restartAdvertisement = 0; 
  45:main.c        ****             CyBle_GappStartAdvertisement(CYBLE_ADVERTISING_FAST);
  46:main.c        ****         }
  47:main.c        ****     }        
  48:main.c        **** }  
  49:main.c        **** 
  50:main.c        **** 
  51:main.c        **** void print()
  52:main.c        **** {
 260              		.loc 2 52 0
 261              		.cfi_startproc
 262              		@ args = 0, pretend = 0, frame = 0
 263              		@ frame_needed = 0, uses_anonymous_args = 0
ARM GAS  C:\Users\11800025\AppData\Local\Temp\cckN4rPz.s 			page 9


 264 0000 10B5     		push	{r4, lr}
 265              		.cfi_def_cfa_offset 8
 266              		.cfi_offset 4, -8
 267              		.cfi_offset 14, -4
  53:main.c        ****         UART_UartPutString(" Afstand links = "); 
 268              		.loc 2 53 0
 269 0002 1348     		ldr	r0, .L18
 270 0004 FFF7FEFF 		bl	UART_UartPutString
 271              	.LVL12:
  54:main.c        ****         UART_UartPutString(afstand_links);
 272              		.loc 2 54 0
 273 0008 1248     		ldr	r0, .L18+4
 274 000a FFF7FEFF 		bl	UART_UartPutString
 275              	.LVL13:
  55:main.c        ****         UART_UartPutString(" cm ");  
 276              		.loc 2 55 0
 277 000e 124C     		ldr	r4, .L18+8
 278 0010 2000     		movs	r0, r4
 279 0012 FFF7FEFF 		bl	UART_UartPutString
 280              	.LVL14:
  56:main.c        ****         
  57:main.c        ****         UART_UartPutChar('\t');
 281              		.loc 2 57 0
 282 0016 0920     		movs	r0, #9
 283 0018 FFF7FEFF 		bl	UART_SpiUartWriteTxData
 284              	.LVL15:
  58:main.c        ****         
  59:main.c        ****         UART_UartPutString(" Afstand midden = "); 
 285              		.loc 2 59 0
 286 001c 0F48     		ldr	r0, .L18+12
 287 001e FFF7FEFF 		bl	UART_UartPutString
 288              	.LVL16:
  60:main.c        ****         UART_UartPutString(afstand_midden);
 289              		.loc 2 60 0
 290 0022 0F48     		ldr	r0, .L18+16
 291 0024 FFF7FEFF 		bl	UART_UartPutString
 292              	.LVL17:
  61:main.c        ****         UART_UartPutString(" cm ");  
 293              		.loc 2 61 0
 294 0028 2000     		movs	r0, r4
 295 002a FFF7FEFF 		bl	UART_UartPutString
 296              	.LVL18:
  62:main.c        ****         
  63:main.c        ****         UART_UartPutChar('\t');
 297              		.loc 2 63 0
 298 002e 0920     		movs	r0, #9
 299 0030 FFF7FEFF 		bl	UART_SpiUartWriteTxData
 300              	.LVL19:
  64:main.c        ****         
  65:main.c        ****         UART_UartPutString(" Afstand rechts = "); 
 301              		.loc 2 65 0
 302 0034 0B48     		ldr	r0, .L18+20
 303 0036 FFF7FEFF 		bl	UART_UartPutString
 304              	.LVL20:
  66:main.c        ****         UART_UartPutString(afstand_rechts);
 305              		.loc 2 66 0
 306 003a 0B48     		ldr	r0, .L18+24
ARM GAS  C:\Users\11800025\AppData\Local\Temp\cckN4rPz.s 			page 10


 307 003c FFF7FEFF 		bl	UART_UartPutString
 308              	.LVL21:
  67:main.c        ****         UART_UartPutString(" cm ");              
 309              		.loc 2 67 0
 310 0040 2000     		movs	r0, r4
 311 0042 FFF7FEFF 		bl	UART_UartPutString
 312              	.LVL22:
  68:main.c        ****         
  69:main.c        ****         UART_UartPutCRLF(0u);
 313              		.loc 2 69 0
 314 0046 0020     		movs	r0, #0
 315 0048 FFF7FEFF 		bl	UART_UartPutCRLF
 316              	.LVL23:
  70:main.c        **** }
 317              		.loc 2 70 0
 318              		@ sp needed
 319 004c 10BD     		pop	{r4, pc}
 320              	.L19:
 321 004e C046     		.align	2
 322              	.L18:
 323 0050 00000000 		.word	.LC11
 324 0054 00000000 		.word	afstand_links
 325 0058 14000000 		.word	.LC14
 326 005c 1C000000 		.word	.LC16
 327 0060 00000000 		.word	afstand_midden
 328 0064 30000000 		.word	.LC19
 329 0068 00000000 		.word	afstand_rechts
 330              		.cfi_endproc
 331              	.LFE39:
 332              		.size	print, .-print
 333              		.section	.text.switchToString,"ax",%progbits
 334              		.align	2
 335              		.global	switchToString
 336              		.code	16
 337              		.thumb_func
 338              		.type	switchToString, %function
 339              	switchToString:
 340              	.LFB40:
  71:main.c        **** 
  72:main.c        **** void switchToString()
  73:main.c        **** {
 341              		.loc 2 73 0
 342              		.cfi_startproc
 343              		@ args = 0, pretend = 0, frame = 0
 344              		@ frame_needed = 0, uses_anonymous_args = 0
 345 0000 10B5     		push	{r4, lr}
 346              		.cfi_def_cfa_offset 8
 347              		.cfi_offset 4, -8
 348              		.cfi_offset 14, -4
  74:main.c        ****         itoa(a_rechts,afstand_rechts,10);
 349              		.loc 2 74 0
 350 0002 094B     		ldr	r3, .L21
 351 0004 1878     		ldrb	r0, [r3]
 352 0006 0A22     		movs	r2, #10
 353 0008 0849     		ldr	r1, .L21+4
 354 000a FFF7FEFF 		bl	itoa
 355              	.LVL24:
ARM GAS  C:\Users\11800025\AppData\Local\Temp\cckN4rPz.s 			page 11


  75:main.c        ****         itoa(a_midden,afstand_midden,10); 
 356              		.loc 2 75 0
 357 000e 084B     		ldr	r3, .L21+8
 358 0010 1878     		ldrb	r0, [r3]
 359 0012 0A22     		movs	r2, #10
 360 0014 0749     		ldr	r1, .L21+12
 361 0016 FFF7FEFF 		bl	itoa
 362              	.LVL25:
  76:main.c        ****         itoa(a_links, afstand_links,10);
 363              		.loc 2 76 0
 364 001a 074B     		ldr	r3, .L21+16
 365 001c 1878     		ldrb	r0, [r3]
 366 001e 0A22     		movs	r2, #10
 367 0020 0649     		ldr	r1, .L21+20
 368 0022 FFF7FEFF 		bl	itoa
 369              	.LVL26:
  77:main.c        **** }
 370              		.loc 2 77 0
 371              		@ sp needed
 372 0026 10BD     		pop	{r4, pc}
 373              	.L22:
 374              		.align	2
 375              	.L21:
 376 0028 00000000 		.word	a_rechts
 377 002c 00000000 		.word	afstand_rechts
 378 0030 00000000 		.word	a_midden
 379 0034 00000000 		.word	afstand_midden
 380 0038 00000000 		.word	a_links
 381 003c 00000000 		.word	afstand_links
 382              		.cfi_endproc
 383              	.LFE40:
 384              		.size	switchToString, .-switchToString
 385              		.section	.text.MaxAndMin,"ax",%progbits
 386              		.align	2
 387              		.global	MaxAndMin
 388              		.code	16
 389              		.thumb_func
 390              		.type	MaxAndMin, %function
 391              	MaxAndMin:
 392              	.LFB42:
  78:main.c        **** 
  79:main.c        **** void getDistance()
  80:main.c        **** {
  81:main.c        ****         a_links  = UltraSoon_Links_ReadCompare(); 
  82:main.c        ****         a_midden = UltraSoon_Midden_ReadCompare();  
  83:main.c        ****         a_rechts = UltraSoon_Rechts_ReadCompare();
  84:main.c        ****         MaxAndMin();
  85:main.c        **** }
  86:main.c        **** 
  87:main.c        **** void MaxAndMin()
  88:main.c        **** {
 393              		.loc 2 88 0
 394              		.cfi_startproc
 395              		@ args = 0, pretend = 0, frame = 0
 396              		@ frame_needed = 0, uses_anonymous_args = 0
 397              		@ link register save eliminated.
  89:main.c        ****         if( a_links >= 255 || a_midden >= 255 || a_rechts >= 255)
ARM GAS  C:\Users\11800025\AppData\Local\Temp\cckN4rPz.s 			page 12


 398              		.loc 2 89 0
 399 0000 134B     		ldr	r3, .L28
 400 0002 1B78     		ldrb	r3, [r3]
 401 0004 FF2B     		cmp	r3, #255
 402 0006 07D0     		beq	.L24
 403              		.loc 2 89 0 is_stmt 0 discriminator 1
 404 0008 124B     		ldr	r3, .L28+4
 405 000a 1B78     		ldrb	r3, [r3]
 406 000c FF2B     		cmp	r3, #255
 407 000e 03D0     		beq	.L24
 408              		.loc 2 89 0 discriminator 2
 409 0010 114B     		ldr	r3, .L28+8
 410 0012 1B78     		ldrb	r3, [r3]
 411 0014 FF2B     		cmp	r3, #255
 412 0016 06D1     		bne	.L25
 413              	.L24:
  90:main.c        ****         {
  91:main.c        ****             a_links = 255;
 414              		.loc 2 91 0 is_stmt 1
 415 0018 FF23     		movs	r3, #255
 416 001a 0D4A     		ldr	r2, .L28
 417 001c 1370     		strb	r3, [r2]
  92:main.c        ****             a_midden = 255;
 418              		.loc 2 92 0
 419 001e 0D4A     		ldr	r2, .L28+4
 420 0020 1370     		strb	r3, [r2]
  93:main.c        ****             a_rechts = 255;
 421              		.loc 2 93 0
 422 0022 0D4A     		ldr	r2, .L28+8
 423 0024 1370     		strb	r3, [r2]
 424              	.L25:
  94:main.c        ****         }
  95:main.c        ****         
  96:main.c        ****         if( a_links <= 1 || a_midden <= 1 || a_rechts <= 1)
 425              		.loc 2 96 0
 426 0026 0A4B     		ldr	r3, .L28
 427 0028 1B78     		ldrb	r3, [r3]
 428 002a 012B     		cmp	r3, #1
 429 002c 07D9     		bls	.L26
 430              		.loc 2 96 0 is_stmt 0 discriminator 1
 431 002e 094B     		ldr	r3, .L28+4
 432 0030 1B78     		ldrb	r3, [r3]
 433 0032 012B     		cmp	r3, #1
 434 0034 03D9     		bls	.L26
 435              		.loc 2 96 0 discriminator 2
 436 0036 084B     		ldr	r3, .L28+8
 437 0038 1B78     		ldrb	r3, [r3]
 438 003a 012B     		cmp	r3, #1
 439 003c 06D8     		bhi	.L23
 440              	.L26:
  97:main.c        ****         {
  98:main.c        ****             a_links  = 0;
 441              		.loc 2 98 0 is_stmt 1
 442 003e 0023     		movs	r3, #0
 443 0040 034A     		ldr	r2, .L28
 444 0042 1370     		strb	r3, [r2]
  99:main.c        ****             a_midden = 0;
ARM GAS  C:\Users\11800025\AppData\Local\Temp\cckN4rPz.s 			page 13


 445              		.loc 2 99 0
 446 0044 034A     		ldr	r2, .L28+4
 447 0046 1370     		strb	r3, [r2]
 100:main.c        ****             a_rechts = 0;
 448              		.loc 2 100 0
 449 0048 034A     		ldr	r2, .L28+8
 450 004a 1370     		strb	r3, [r2]
 451              	.L23:
 101:main.c        ****         }
 102:main.c        **** }
 452              		.loc 2 102 0
 453              		@ sp needed
 454 004c 7047     		bx	lr
 455              	.L29:
 456 004e C046     		.align	2
 457              	.L28:
 458 0050 00000000 		.word	a_links
 459 0054 00000000 		.word	a_midden
 460 0058 00000000 		.word	a_rechts
 461              		.cfi_endproc
 462              	.LFE42:
 463              		.size	MaxAndMin, .-MaxAndMin
 464              		.section	.text.getDistance,"ax",%progbits
 465              		.align	2
 466              		.global	getDistance
 467              		.code	16
 468              		.thumb_func
 469              		.type	getDistance, %function
 470              	getDistance:
 471              	.LFB41:
  80:main.c        ****         a_links  = UltraSoon_Links_ReadCompare(); 
 472              		.loc 2 80 0
 473              		.cfi_startproc
 474              		@ args = 0, pretend = 0, frame = 0
 475              		@ frame_needed = 0, uses_anonymous_args = 0
 476 0000 10B5     		push	{r4, lr}
 477              		.cfi_def_cfa_offset 8
 478              		.cfi_offset 4, -8
 479              		.cfi_offset 14, -4
  81:main.c        ****         a_midden = UltraSoon_Midden_ReadCompare();  
 480              		.loc 2 81 0
 481 0002 FFF7FEFF 		bl	UltraSoon_Links_ReadCompare
 482              	.LVL27:
 483 0006 064B     		ldr	r3, .L31
 484 0008 1870     		strb	r0, [r3]
  82:main.c        ****         a_rechts = UltraSoon_Rechts_ReadCompare();
 485              		.loc 2 82 0
 486 000a FFF7FEFF 		bl	UltraSoon_Midden_ReadCompare
 487              	.LVL28:
 488 000e 054B     		ldr	r3, .L31+4
 489 0010 1870     		strb	r0, [r3]
  83:main.c        ****         MaxAndMin();
 490              		.loc 2 83 0
 491 0012 FFF7FEFF 		bl	UltraSoon_Rechts_ReadCompare
 492              	.LVL29:
 493 0016 044B     		ldr	r3, .L31+8
 494 0018 1870     		strb	r0, [r3]
ARM GAS  C:\Users\11800025\AppData\Local\Temp\cckN4rPz.s 			page 14


  84:main.c        **** }
 495              		.loc 2 84 0
 496 001a FFF7FEFF 		bl	MaxAndMin
 497              	.LVL30:
  85:main.c        **** 
 498              		.loc 2 85 0
 499              		@ sp needed
 500 001e 10BD     		pop	{r4, pc}
 501              	.L32:
 502              		.align	2
 503              	.L31:
 504 0020 00000000 		.word	a_links
 505 0024 00000000 		.word	a_midden
 506 0028 00000000 		.word	a_rechts
 507              		.cfi_endproc
 508              	.LFE41:
 509              		.size	getDistance, .-getDistance
 510              		.section	.text.main,"ax",%progbits
 511              		.align	2
 512              		.global	main
 513              		.code	16
 514              		.thumb_func
 515              		.type	main, %function
 516              	main:
 517              	.LFB38:
  23:main.c        ****     CyGlobalIntEnable; /* Enable global interrupts. */  
 518              		.loc 2 23 0
 519              		.cfi_startproc
 520              		@ Volatile: function does not return.
 521              		@ args = 0, pretend = 0, frame = 0
 522              		@ frame_needed = 0, uses_anonymous_args = 0
 523 0000 10B5     		push	{r4, lr}
 524              		.cfi_def_cfa_offset 8
 525              		.cfi_offset 4, -8
 526              		.cfi_offset 14, -4
  24:main.c        ****     
 527              		.loc 2 24 0
 528              		.syntax divided
 529              	@ 24 "main.c" 1
 530 0002 62B6     		CPSIE   i
 531              	@ 0 "" 2
  26:main.c        ****     PWM_Start(); 
 532              		.loc 2 26 0
 533              		.thumb
 534              		.syntax unified
 535 0004 FFF7FEFF 		bl	UART_Start
 536              	.LVL31:
  27:main.c        **** 
 537              		.loc 2 27 0
 538 0008 FFF7FEFF 		bl	PWM_Start
 539              	.LVL32:
  29:main.c        ****     UltraSoon_Midden_Start();
 540              		.loc 2 29 0
 541 000c FFF7FEFF 		bl	UltraSoon_Links_Start
 542              	.LVL33:
  30:main.c        ****     UltraSoon_Rechts_Start();
 543              		.loc 2 30 0
ARM GAS  C:\Users\11800025\AppData\Local\Temp\cckN4rPz.s 			page 15


 544 0010 FFF7FEFF 		bl	UltraSoon_Midden_Start
 545              	.LVL34:
  31:main.c        ****     
 546              		.loc 2 31 0
 547 0014 FFF7FEFF 		bl	UltraSoon_Rechts_Start
 548              	.LVL35:
  33:main.c        ****     
 549              		.loc 2 33 0
 550 0018 0A48     		ldr	r0, .L36
 551 001a FFF7FEFF 		bl	CyBle_Start
 552              	.LVL36:
 553              	.L34:
  37:main.c        ****         switchToString();
 554              		.loc 2 37 0
 555 001e FFF7FEFF 		bl	getDistance
 556              	.LVL37:
  38:main.c        ****         print();    
 557              		.loc 2 38 0
 558 0022 FFF7FEFF 		bl	switchToString
 559              	.LVL38:
  39:main.c        ****         CyBle_ProcessEvents();
 560              		.loc 2 39 0
 561 0026 FFF7FEFF 		bl	print
 562              	.LVL39:
  40:main.c        ****         //CyDelay(500);  
 563              		.loc 2 40 0
 564 002a FFF7FEFF 		bl	CyBle_ProcessEvents
 565              	.LVL40:
  42:main.c        ****         {
 566              		.loc 2 42 0
 567 002e 064B     		ldr	r3, .L36+4
 568 0030 DB78     		ldrb	r3, [r3, #3]
 569 0032 002B     		cmp	r3, #0
 570 0034 F3D0     		beq	.L34
  44:main.c        ****             CyBle_GappStartAdvertisement(CYBLE_ADVERTISING_FAST);
 571              		.loc 2 44 0
 572 0036 0022     		movs	r2, #0
 573 0038 034B     		ldr	r3, .L36+4
 574 003a DA70     		strb	r2, [r3, #3]
  45:main.c        ****         }
 575              		.loc 2 45 0
 576 003c 0020     		movs	r0, #0
 577 003e FFF7FEFF 		bl	CyBle_GappStartAdvertisement
 578              	.LVL41:
 579 0042 ECE7     		b	.L34
 580              	.L37:
 581              		.align	2
 582              	.L36:
 583 0044 00000000 		.word	StackEventHandler
 584 0048 00000000 		.word	.LANCHOR0
 585              		.cfi_endproc
 586              	.LFE38:
 587              		.size	main, .-main
 588              		.comm	whatToDo,1,1
 589              		.global	started
 590              		.global	number
 591              		.global	busyStatus
ARM GAS  C:\Users\11800025\AppData\Local\Temp\cckN4rPz.s 			page 16


 592              		.global	restartAdvertisement
 593              		.global	deviceConnected
 594              		.comm	afstand_links,1,4
 595              		.comm	afstand_midden,1,4
 596              		.comm	afstand_rechts,1,4
 597              		.comm	a_rechts,1,1
 598              		.comm	a_midden,1,1
 599              		.comm	a_links,1,1
 600              		.global	value3
 601              		.global	value2
 602              		.global	value
 603              		.comm	connectionHandle,2,4
 604              		.data
 605              		.type	number, %object
 606              		.size	number, 1
 607              	number:
 608 0000 07       		.byte	7
 609              		.section	.rodata.str1.4,"aMS",%progbits,1
 610              		.align	2
 611              	.LC11:
 612 0000 20416673 		.ascii	" Afstand links = \000"
 612      74616E64 
 612      206C696E 
 612      6B73203D 
 612      2000
 613 0012 0000     		.space	2
 614              	.LC14:
 615 0014 20636D20 		.ascii	" cm \000"
 615      00
 616 0019 000000   		.space	3
 617              	.LC16:
 618 001c 20416673 		.ascii	" Afstand midden = \000"
 618      74616E64 
 618      206D6964 
 618      64656E20 
 618      3D2000
 619 002f 00       		.space	1
 620              	.LC19:
 621 0030 20416673 		.ascii	" Afstand rechts = \000"
 621      74616E64 
 621      20726563 
 621      68747320 
 621      3D2000
 622              		.bss
 623              		.set	.LANCHOR0,. + 0
 624              		.type	value, %object
 625              		.size	value, 1
 626              	value:
 627 0000 00       		.space	1
 628              		.type	value2, %object
 629              		.size	value2, 1
 630              	value2:
 631 0001 00       		.space	1
 632              		.type	value3, %object
 633              		.size	value3, 1
 634              	value3:
 635 0002 00       		.space	1
ARM GAS  C:\Users\11800025\AppData\Local\Temp\cckN4rPz.s 			page 17


 636              		.type	restartAdvertisement, %object
 637              		.size	restartAdvertisement, 1
 638              	restartAdvertisement:
 639 0003 00       		.space	1
 640              		.type	deviceConnected, %object
 641              		.size	deviceConnected, 1
 642              	deviceConnected:
 643 0004 00       		.space	1
 644              		.type	busyStatus, %object
 645              		.size	busyStatus, 1
 646              	busyStatus:
 647 0005 00       		.space	1
 648              		.type	started, %object
 649              		.size	started, 1
 650              	started:
 651 0006 00       		.space	1
 652              		.text
 653              	.Letext0:
 654              		.file 3 "Generated_Source\\PSoC4/cytypes.h"
 655              		.file 4 "Generated_Source\\PSoC4/BLE_StackGatt.h"
 656              		.file 5 "Generated_Source\\PSoC4/BLE_StackGattServer.h"
 657              		.file 6 "Generated_Source\\PSoC4/BLE_Stack.h"
 658              		.file 7 "Generated_Source\\PSoC4/BLE_eventHandler.h"
 659              		.file 8 "BLE.h"
 660              		.file 9 "Generated_Source\\PSoC4/BLE_StackGattDb.h"
 661              		.file 10 "Generated_Source\\PSoC4/UART_SPI_UART.h"
 662              		.file 11 "c:\\program files (x86)\\cypress\\psoc creator\\4.2\\psoc creator\\import\\gnu\\arm\\5.4
 663              		.file 12 "Generated_Source\\PSoC4/UltraSoon_Links.h"
 664              		.file 13 "Generated_Source\\PSoC4/UltraSoon_Midden.h"
 665              		.file 14 "Generated_Source\\PSoC4/UltraSoon_Rechts.h"
 666              		.file 15 "Generated_Source\\PSoC4/UART.h"
 667              		.file 16 "Generated_Source\\PSoC4/PWM.h"
 668              		.file 17 "Generated_Source\\PSoC4/BLE.h"